	.text
	.syntax unified
	.eabi_attribute	67, "2.09"	@ Tag_conformance
	.cpu	cortex-m23
	.eabi_attribute	6, 16	@ Tag_CPU_arch
	.eabi_attribute	7, 77	@ Tag_CPU_arch_profile
	.eabi_attribute	8, 0	@ Tag_ARM_ISA_use
	.eabi_attribute	9, 3	@ Tag_THUMB_ISA_use
	.eabi_attribute	34, 0	@ Tag_CPU_unaligned_access
	.eabi_attribute	17, 1	@ Tag_ABI_PCS_GOT_use
	.eabi_attribute	20, 2	@ Tag_ABI_FP_denormal
	.eabi_attribute	21, 0	@ Tag_ABI_FP_exceptions
	.eabi_attribute	23, 1	@ Tag_ABI_FP_number_model
	.eabi_attribute	24, 1	@ Tag_ABI_align_needed
	.eabi_attribute	25, 1	@ Tag_ABI_align_preserved
	.eabi_attribute	38, 1	@ Tag_ABI_FP_16bit_format
	.eabi_attribute	18, 2	@ Tag_ABI_PCS_wchar_t
	.eabi_attribute	26, 1	@ Tag_ABI_enum_size
	.eabi_attribute	14, 0	@ Tag_ABI_PCS_R9_use
	.file	"main.c"
	.file	1 "D:\\Keil_v5\\ARM\\ARMCLANG\\Bin\\..\\include" "stdint.h"
	.file	2 "E:\\project\\product\\GD32\\GD32E230\\E230 - TH\\MDK-ARM" "../User/main.c"
	.file	3 "E:\\project\\product\\GD32\\GD32E230\\E230 - TH\\MDK-ARM" "../GD32E230_Firmware_Library/GD32E230_standard_peripheral/Include\\gd32e230_rcu.h"
	.file	4 "E:\\project\\product\\GD32\\GD32E230\\E230 - TH\\MDK-ARM" "../GD32E230_Firmware_Library/CMSIS/GD/GD32E230/Include\\gd32e230.h"
	.file	5 "E:\\project\\product\\GD32\\GD32E230\\E230 - TH\\MDK-ARM" "../GD32E230_Firmware_Library/GD32E230_standard_peripheral/Include\\gd32e230_usart.h"
	.file	6 "E:\\project\\product\\GD32\\GD32E230\\E230 - TH\\MDK-ARM" "../APP/Inc/type.h"
	.section	.text.DRV_IWDG_Init,"ax",%progbits
	.hidden	DRV_IWDG_Init           @ -- Begin function DRV_IWDG_Init
	.globl	DRV_IWDG_Init
	.p2align	2
	.type	DRV_IWDG_Init,%function
	.code	16                      @ @DRV_IWDG_Init
	.thumb_func
DRV_IWDG_Init:
.Lfunc_begin0:
	.loc	2 64 0                  @ ../User/main.c:64:0
	.fnstart
	.cfi_sections .debug_frame
	.cfi_startproc
@ %bb.0:
	.save	{r7, lr}
	push	{r7, lr}
	.cfi_def_cfa_offset 8
	.cfi_offset lr, -4
	.cfi_offset r7, -8
	.pad	#8
	sub	sp, #8
	.cfi_def_cfa_offset 16
	movw	r0, #2304
.Ltmp0:
	.loc	2 65 2 prologue_end     @ ../User/main.c:65:2
	bl	rcu_osci_on
	.loc	2 66 5                  @ ../User/main.c:66:5
	b	.LBB0_1
.LBB0_1:                                @ =>This Inner Loop Header: Depth=1
	.loc	2 0 5 is_stmt 0         @ ../User/main.c:0:5
	movw	r0, #2304
	.loc	2 66 22                 @ ../User/main.c:66:22
	bl	rcu_osci_stab_wait
	.loc	2 66 5                  @ ../User/main.c:66:5
	cmp	r0, #1
	beq	.LBB0_3
	b	.LBB0_2
.LBB0_2:                                @   in Loop: Header=BB0_1 Depth=1
	b	.LBB0_1
.LBB0_3:
	.loc	2 0 5                   @ ../User/main.c:0:5
	ldr	r0, __arm_cp.0_0
	movs	r1, #6
	.loc	2 70 2 is_stmt 1        @ ../User/main.c:70:2
	bl	fwdgt_config
	.loc	2 71 2                  @ ../User/main.c:71:2
	str	r0, [sp, #4]            @ 4-byte Spill
	bl	fwdgt_enable
	.loc	2 84 1                  @ ../User/main.c:84:1
	add	sp, #8
	pop	{r7, pc}
.Ltmp1:
	.p2align	2
@ %bb.4:
	.loc	2 0 1 is_stmt 0         @ ../User/main.c:0:1
__arm_cp.0_0:
	.long	2500                    @ 0x9c4
.Lcpi_end0:
	.size	__arm_cp.0_0, .Lcpi_end0-__arm_cp.0_0
.Lfunc_end0:
	.size	DRV_IWDG_Init, .Lfunc_end0-DRV_IWDG_Init
	.cfi_endproc
	.cantunwind
	.fnend
                                        @ -- End function
	.section	.text.rs485_Init,"ax",%progbits
	.hidden	rs485_Init              @ -- Begin function rs485_Init
	.globl	rs485_Init
	.p2align	2
	.type	rs485_Init,%function
	.code	16                      @ @rs485_Init
	.thumb_func
rs485_Init:
.Lfunc_begin1:
	.loc	2 89 0 is_stmt 1        @ ../User/main.c:89:0
	.fnstart
	.cfi_startproc
@ %bb.0:
	.save	{r7, lr}
	push	{r7, lr}
	.cfi_def_cfa_offset 8
	.cfi_offset lr, -4
	.cfi_offset r7, -8
	.pad	#16
	sub	sp, #16
	.cfi_def_cfa_offset 24
	ldr	r0, __arm_cp.1_0
.Ltmp2:
	.loc	2 91 5 prologue_end     @ ../User/main.c:91:5
	bl	rcu_periph_clock_enable
	movs	r0, #9
	lsls	r0, r0, #27
	movs	r1, #1
	movs	r2, #0
	movs	r3, #4
	.loc	2 93 5                  @ ../User/main.c:93:5
	str	r0, [sp, #12]           @ 4-byte Spill
	str	r1, [sp, #8]            @ 4-byte Spill
	str	r2, [sp, #4]            @ 4-byte Spill
	str	r3, [sp]                @ 4-byte Spill
	bl	gpio_mode_set
	.loc	2 95 2                  @ ../User/main.c:95:2
	ldr	r0, [sp, #12]           @ 4-byte Reload
	ldr	r1, [sp, #4]            @ 4-byte Reload
	ldr	r2, [sp, #8]            @ 4-byte Reload
	ldr	r3, [sp]                @ 4-byte Reload
	bl	gpio_output_options_set
	.loc	2 97 2                  @ ../User/main.c:97:2
	ldr	r0, [sp, #12]           @ 4-byte Reload
	ldr	r1, [sp]                @ 4-byte Reload
	bl	gpio_bit_reset
	.loc	2 100 1                 @ ../User/main.c:100:1
	add	sp, #16
	pop	{r7, pc}
.Ltmp3:
	.p2align	2
@ %bb.1:
	.loc	2 0 1 is_stmt 0         @ ../User/main.c:0:1
__arm_cp.1_0:
	.long	1297                    @ 0x511
.Lcpi_end1:
	.size	__arm_cp.1_0, .Lcpi_end1-__arm_cp.1_0
.Lfunc_end1:
	.size	rs485_Init, .Lfunc_end1-rs485_Init
	.cfi_endproc
	.cantunwind
	.fnend
                                        @ -- End function
	.section	.text.delayms,"ax",%progbits
	.hidden	delayms                 @ -- Begin function delayms
	.globl	delayms
	.p2align	1
	.type	delayms,%function
	.code	16                      @ @delayms
	.thumb_func
delayms:
.Lfunc_begin2:
	.loc	2 103 0 is_stmt 1       @ ../User/main.c:103:0
	.fnstart
	.cfi_startproc
@ %bb.0:
	.pad	#8
	sub	sp, #8
	.cfi_def_cfa_offset 8
	add	r0, sp, #4
	movs	r1, #255
.Ltmp4:
	.loc	2 104 11 prologue_end   @ ../User/main.c:104:11
	strh	r1, [r0]
	mov	r0, sp
	.loc	2 104 18 is_stmt 0      @ ../User/main.c:104:18
	strh	r1, [r0]
	.loc	2 105 2 is_stmt 1       @ ../User/main.c:105:2
	b	.LBB2_1
.LBB2_1:                                @ =>This Loop Header: Depth=1
                                        @     Child Loop BB2_3 Depth 2
	.loc	2 0 2 is_stmt 0         @ ../User/main.c:0:2
	add	r0, sp, #4
.Ltmp5:
	.loc	2 105 7                 @ ../User/main.c:105:7
	ldrh	r0, [r0]
.Ltmp6:
	.loc	2 105 2                 @ ../User/main.c:105:2
	cmp	r0, #1
	blt	.LBB2_8
	b	.LBB2_2
.LBB2_2:                                @   in Loop: Header=BB2_1 Depth=1
.Ltmp7:
	.loc	2 106 3 is_stmt 1       @ ../User/main.c:106:3
	b	.LBB2_3
.LBB2_3:                                @   Parent Loop BB2_1 Depth=1
                                        @ =>  This Inner Loop Header: Depth=2
	.loc	2 0 3 is_stmt 0         @ ../User/main.c:0:3
	mov	r0, sp
.Ltmp8:
	.loc	2 106 8                 @ ../User/main.c:106:8
	ldrh	r0, [r0]
.Ltmp9:
	.loc	2 106 3                 @ ../User/main.c:106:3
	cmp	r0, #1
	blt	.LBB2_6
	b	.LBB2_4
.LBB2_4:                                @   in Loop: Header=BB2_3 Depth=2
	b	.LBB2_5
.LBB2_5:                                @   in Loop: Header=BB2_3 Depth=2
.Ltmp10:
	.loc	2 106 13                @ ../User/main.c:106:13
	ldr	r0, [sp]
	subs	r0, r0, #1
	mov	r1, sp
	strh	r0, [r1]
	.loc	2 106 3                 @ ../User/main.c:106:3
	b	.LBB2_3
.Ltmp11:
.LBB2_6:                                @   in Loop: Header=BB2_1 Depth=1
	.loc	2 106 16                @ ../User/main.c:106:16
	b	.LBB2_7
.Ltmp12:
.LBB2_7:                                @   in Loop: Header=BB2_1 Depth=1
	.loc	2 105 12 is_stmt 1      @ ../User/main.c:105:12
	ldr	r0, [sp, #4]
	subs	r0, r0, #1
	add	r1, sp, #4
	strh	r0, [r1]
	.loc	2 105 2 is_stmt 0       @ ../User/main.c:105:2
	b	.LBB2_1
.Ltmp13:
.LBB2_8:
	.loc	2 107 1 is_stmt 1       @ ../User/main.c:107:1
	add	sp, #8
	bx	lr
.Ltmp14:
.Lfunc_end2:
	.size	delayms, .Lfunc_end2-delayms
	.cfi_endproc
	.cantunwind
	.fnend
                                        @ -- End function
	.section	.text.main,"ax",%progbits
	.hidden	main                    @ -- Begin function main
	.globl	main
	.p2align	2
	.type	main,%function
	.code	16                      @ @main
	.thumb_func
main:
.Lfunc_begin3:
	.loc	2 133 0                 @ ../User/main.c:133:0
	.fnstart
	.cfi_startproc
@ %bb.0:
	.save	{r7, lr}
	push	{r7, lr}
	.cfi_def_cfa_offset 8
	.cfi_offset lr, -4
	.cfi_offset r7, -8
	.pad	#32
	sub	sp, #32
	.cfi_def_cfa_offset 40
	movs	r0, #0
	str	r0, [sp, #28]
	movs	r1, #1
	lsls	r1, r1, #27
	movw	r2, #16384
.Ltmp15:
	.loc	2 134 2 prologue_end    @ ../User/main.c:134:2
	str	r0, [sp, #8]            @ 4-byte Spill
	mov	r0, r1
	mov	r1, r2
	bl	nvic_vector_table_set
	add	r0, sp, #12
	.loc	2 136 10                @ ../User/main.c:136:10
	ldr	r1, [sp, #8]            @ 4-byte Reload
	strb	r1, [r0, #12]
	ldr	r0, __arm_cp.3_0
	str	r0, [sp, #20]
	ldr	r0, __arm_cp.3_1
	str	r0, [sp, #16]
	ldr	r0, __arm_cp.3_2
	str	r0, [sp, #12]
	movs	r0, #27
	movs	r1, #2
	.loc	2 138 2                 @ ../User/main.c:138:2
	bl	nvic_irq_enable
	.loc	2 141 5                 @ ../User/main.c:141:5
	bl	com_gpio_init
	.loc	2 142 5                 @ ../User/main.c:142:5
	bl	com_usart_init
	ldr	r0, __arm_cp.3_3
	movs	r1, #5
	.loc	2 147 2                 @ ../User/main.c:147:2
	bl	usart_interrupt_enable
	.loc	2 149 2                 @ ../User/main.c:149:2
	bl	DRV_IWDG_Init
	.loc	2 152 2                 @ ../User/main.c:152:2
	bl	TIMER2_Init
	.loc	2 154 2                 @ ../User/main.c:154:2
	bl	TIMER15_Init
	.loc	2 156 2                 @ ../User/main.c:156:2
	bl	ReadPara
	.loc	2 158 2                 @ ../User/main.c:158:2
	bl	TH_IIC_Init
	.loc	2 159 5                 @ ../User/main.c:159:5
	bl	SHT3_Init
	.loc	2 167 5                 @ ../User/main.c:167:5
	b	.LBB3_1
.LBB3_1:                                @ =>This Inner Loop Header: Depth=1
.Ltmp16:
	.loc	2 170 3                 @ ../User/main.c:170:3
	bl	fwdgt_counter_reload
.Ltmp17:
	.loc	2 172 6                 @ ../User/main.c:172:6
	ldr	r0, __arm_cp.3_4
	ldrb	r0, [r0]
.Ltmp18:
	.loc	2 172 6 is_stmt 0       @ ../User/main.c:172:6
	cmp	r0, #0
	beq	.LBB3_3
	b	.LBB3_2
.LBB3_2:                                @   in Loop: Header=BB3_1 Depth=1
.Ltmp19:
	.loc	2 174 17 is_stmt 1      @ ../User/main.c:174:17
	ldr	r0, __arm_cp.3_4
	movs	r1, #0
	strb	r1, [r0]
	.loc	2 175 4                 @ ../User/main.c:175:4
	bl	ReadTH
	.loc	2 176 3                 @ ../User/main.c:176:3
	b	.LBB3_3
.Ltmp20:
.LBB3_3:                                @   in Loop: Header=BB3_1 Depth=1
	.loc	2 179 6                 @ ../User/main.c:179:6
	ldr	r0, __arm_cp.3_5
	ldrb	r0, [r0]
.Ltmp21:
	.loc	2 179 6 is_stmt 0       @ ../User/main.c:179:6
	cmp	r0, #0
	bne	.LBB3_7
	b	.LBB3_4
.LBB3_4:                                @   in Loop: Header=BB3_1 Depth=1
.Ltmp22:
	.loc	2 181 12 is_stmt 1      @ ../User/main.c:181:12
	ldr	r0, __arm_cp.3_6
	ldr	r1, [r0]
	adds	r1, r1, #1
	str	r1, [r0]
.Ltmp23:
	.loc	2 182 7                 @ ../User/main.c:182:7
	ldr	r0, [r0]
	movw	r1, #1000
.Ltmp24:
	.loc	2 182 7 is_stmt 0       @ ../User/main.c:182:7
	cmp	r0, r1
	bne	.LBB3_6
	b	.LBB3_5
.LBB3_5:                                @   in Loop: Header=BB3_1 Depth=1
	.loc	2 0 7                   @ ../User/main.c:0:7
	movs	r0, #9
	lsls	r0, r0, #27
	movs	r1, #4
.Ltmp25:
	.loc	2 184 5 is_stmt 1       @ ../User/main.c:184:5
	bl	gpio_bit_reset
	.loc	2 185 13                @ ../User/main.c:185:13
	ldr	r0, __arm_cp.3_5
	movs	r1, #1
	strb	r1, [r0]
	.loc	2 186 13                @ ../User/main.c:186:13
	ldr	r0, __arm_cp.3_6
	movs	r1, #0
	str	r1, [r0]
	.loc	2 187 4                 @ ../User/main.c:187:4
	b	.LBB3_6
.Ltmp26:
.LBB3_6:                                @   in Loop: Header=BB3_1 Depth=1
	.loc	2 188 3                 @ ../User/main.c:188:3
	b	.LBB3_7
.Ltmp27:
.LBB3_7:                                @   in Loop: Header=BB3_1 Depth=1
	.loc	2 191 6                 @ ../User/main.c:191:6
	ldr	r0, __arm_cp.3_7
	ldrb	r0, [r0]
.Ltmp28:
	.loc	2 191 6 is_stmt 0       @ ../User/main.c:191:6
	cmp	r0, #1
	bne	.LBB3_9
	b	.LBB3_8
.LBB3_8:                                @   in Loop: Header=BB3_1 Depth=1
.Ltmp29:
	.loc	2 193 4 is_stmt 1       @ ../User/main.c:193:4
	bl	MBASC_Function
	.loc	2 194 3                 @ ../User/main.c:194:3
	b	.LBB3_14
.Ltmp30:
.LBB3_9:                                @   in Loop: Header=BB3_1 Depth=1
	.loc	2 196 34                @ ../User/main.c:196:34
	ldr	r0, __arm_cp.3_8
	ldrb	r1, [r0, #26]
	.loc	2 196 11 is_stmt 0      @ ../User/main.c:196:11
	adds	r0, r0, r1
	ldrb	r0, [r0, #24]
.Ltmp31:
	.loc	2 196 11                @ ../User/main.c:196:11
	cmp	r0, #0
	beq	.LBB3_13
	b	.LBB3_10
.LBB3_10:                               @   in Loop: Header=BB3_1 Depth=1
	.loc	2 0 11                  @ ../User/main.c:0:11
	ldr	r0, __arm_cp.3_9
	movs	r1, #1
.Ltmp32:
	.loc	2 198 5 is_stmt 1       @ ../User/main.c:198:5
	str	r0, [sp, #4]            @ 4-byte Spill
	bl	timer_interrupt_enable
	.loc	2 199 5                 @ ../User/main.c:199:5
	ldr	r0, [sp, #4]            @ 4-byte Reload
	bl	timer_enable
.Ltmp33:
	.loc	2 201 7                 @ ../User/main.c:201:7
	ldr	r0, __arm_cp.3_10
	ldrh	r0, [r0]
	.loc	2 201 52 is_stmt 0      @ ../User/main.c:201:52
	ldr	r1, __arm_cp.3_8
	ldrb	r2, [r1, #26]
	.loc	2 201 29                @ ../User/main.c:201:29
	adds	r1, r1, r2
	ldrb	r1, [r1, #24]
.Ltmp34:
	.loc	2 201 7                 @ ../User/main.c:201:7
	cmp	r0, r1
	bne	.LBB3_12
	b	.LBB3_11
.LBB3_11:                               @   in Loop: Header=BB3_1 Depth=1
.Ltmp35:
	.loc	2 204 5 is_stmt 1       @ ../User/main.c:204:5
	bl	MBASC_AutoUpLoadFrame
	ldr	r0, __arm_cp.3_9
	movs	r1, #1
	.loc	2 206 5                 @ ../User/main.c:206:5
	str	r0, [sp]                @ 4-byte Spill
	bl	timer_interrupt_disable
	.loc	2 207 5                 @ ../User/main.c:207:5
	ldr	r0, [sp]                @ 4-byte Reload
	bl	timer_disable
	.loc	2 208 24                @ ../User/main.c:208:24
	ldr	r0, __arm_cp.3_10
	movs	r1, #0
	strh	r1, [r0]
	.loc	2 212 4                 @ ../User/main.c:212:4
	b	.LBB3_12
.Ltmp36:
.LBB3_12:                               @   in Loop: Header=BB3_1 Depth=1
	.loc	2 213 6                 @ ../User/main.c:213:6
	b	.LBB3_13
.Ltmp37:
.LBB3_13:                               @   in Loop: Header=BB3_1 Depth=1
	.loc	2 0 6 is_stmt 0         @ ../User/main.c:0:6
	b	.LBB3_14
.LBB3_14:                               @   in Loop: Header=BB3_1 Depth=1
	.loc	2 167 5 is_stmt 1       @ ../User/main.c:167:5
	b	.LBB3_1
.Ltmp38:
	.p2align	2
@ %bb.15:
	.loc	2 0 5 is_stmt 0         @ ../User/main.c:0:5
__arm_cp.3_0:
	.long	168650343               @ 0xa0d6667
.Lcpi_end2:
	.size	__arm_cp.3_0, .Lcpi_end2-__arm_cp.3_0
__arm_cp.3_1:
	.long	1702322535              @ 0x65776167
.Lcpi_end3:
	.size	__arm_cp.3_1, .Lcpi_end3-__arm_cp.3_1
__arm_cp.3_2:
	.long	1936156516              @ 0x73676764
.Lcpi_end4:
	.size	__arm_cp.3_2, .Lcpi_end4-__arm_cp.3_2
__arm_cp.3_3:
	.long	1073821696              @ 0x40013800
.Lcpi_end5:
	.size	__arm_cp.3_3, .Lcpi_end5-__arm_cp.3_3
__arm_cp.3_4:
	.long	Time_1s_flag
.Lcpi_end6:
	.size	__arm_cp.3_4, .Lcpi_end6-__arm_cp.3_4
__arm_cp.3_5:
	.long	receive
.Lcpi_end7:
	.size	__arm_cp.3_5, .Lcpi_end7-__arm_cp.3_5
__arm_cp.3_6:
	.long	receive1
.Lcpi_end8:
	.size	__arm_cp.3_6, .Lcpi_end8-__arm_cp.3_6
__arm_cp.3_7:
	.long	UartRecvFrameOK
.Lcpi_end9:
	.size	__arm_cp.3_7, .Lcpi_end9-__arm_cp.3_7
__arm_cp.3_8:
	.long	T_H
.Lcpi_end10:
	.size	__arm_cp.3_8, .Lcpi_end10-__arm_cp.3_8
__arm_cp.3_9:
	.long	1073824768              @ 0x40014400
.Lcpi_end11:
	.size	__arm_cp.3_9, .Lcpi_end11-__arm_cp.3_9
__arm_cp.3_10:
	.long	AutoUpLoad_counter
.Lcpi_end12:
	.size	__arm_cp.3_10, .Lcpi_end12-__arm_cp.3_10
.Lfunc_end3:
	.size	main, .Lfunc_end3-main
	.cfi_endproc
	.cantunwind
	.fnend
                                        @ -- End function
	.section	.text.com_gpio_init,"ax",%progbits
	.hidden	com_gpio_init           @ -- Begin function com_gpio_init
	.globl	com_gpio_init
	.p2align	2
	.type	com_gpio_init,%function
	.code	16                      @ @com_gpio_init
	.thumb_func
com_gpio_init:
.Lfunc_begin4:
	.loc	2 228 0 is_stmt 1       @ ../User/main.c:228:0
	.fnstart
	.cfi_startproc
@ %bb.0:
	.save	{r7, lr}
	push	{r7, lr}
	.cfi_def_cfa_offset 8
	.cfi_offset lr, -4
	.cfi_offset r7, -8
	.pad	#24
	sub	sp, #24
	.cfi_def_cfa_offset 32
	ldr	r0, __arm_cp.4_0
.Ltmp39:
	.loc	2 230 5 prologue_end    @ ../User/main.c:230:5
	bl	rcu_periph_clock_enable
	movs	r0, #9
	lsls	r0, r0, #27
	movs	r1, #1
	movw	r2, #512
	.loc	2 233 5                 @ ../User/main.c:233:5
	str	r0, [sp, #20]           @ 4-byte Spill
	str	r1, [sp, #16]           @ 4-byte Spill
	str	r2, [sp, #12]           @ 4-byte Spill
	bl	gpio_af_set
	movw	r0, #1024
	.loc	2 236 5                 @ ../User/main.c:236:5
	ldr	r1, [sp, #20]           @ 4-byte Reload
	str	r0, [sp, #8]            @ 4-byte Spill
	mov	r0, r1
	ldr	r1, [sp, #16]           @ 4-byte Reload
	ldr	r2, [sp, #8]            @ 4-byte Reload
	bl	gpio_af_set
	movs	r0, #2
	.loc	2 239 5                 @ ../User/main.c:239:5
	ldr	r1, [sp, #20]           @ 4-byte Reload
	str	r0, [sp, #4]            @ 4-byte Spill
	mov	r0, r1
	ldr	r1, [sp, #4]            @ 4-byte Reload
	ldr	r2, [sp, #16]           @ 4-byte Reload
	ldr	r3, [sp, #12]           @ 4-byte Reload
	bl	gpio_mode_set
	movs	r0, #0
	.loc	2 240 5                 @ ../User/main.c:240:5
	ldr	r1, [sp, #20]           @ 4-byte Reload
	str	r0, [sp]                @ 4-byte Spill
	mov	r0, r1
	ldr	r1, [sp]                @ 4-byte Reload
	ldr	r2, [sp, #16]           @ 4-byte Reload
	ldr	r3, [sp, #12]           @ 4-byte Reload
	bl	gpio_output_options_set
	.loc	2 243 5                 @ ../User/main.c:243:5
	ldr	r0, [sp, #20]           @ 4-byte Reload
	ldr	r1, [sp, #4]            @ 4-byte Reload
	ldr	r2, [sp, #16]           @ 4-byte Reload
	ldr	r3, [sp, #8]            @ 4-byte Reload
	bl	gpio_mode_set
	.loc	2 244 5                 @ ../User/main.c:244:5
	ldr	r0, [sp, #20]           @ 4-byte Reload
	ldr	r1, [sp]                @ 4-byte Reload
	ldr	r2, [sp, #16]           @ 4-byte Reload
	ldr	r3, [sp, #8]            @ 4-byte Reload
	bl	gpio_output_options_set
	.loc	2 245 1                 @ ../User/main.c:245:1
	add	sp, #24
	pop	{r7, pc}
.Ltmp40:
	.p2align	2
@ %bb.1:
	.loc	2 0 1 is_stmt 0         @ ../User/main.c:0:1
__arm_cp.4_0:
	.long	1297                    @ 0x511
.Lcpi_end13:
	.size	__arm_cp.4_0, .Lcpi_end13-__arm_cp.4_0
.Lfunc_end4:
	.size	com_gpio_init, .Lfunc_end4-com_gpio_init
	.cfi_endproc
	.cantunwind
	.fnend
                                        @ -- End function
	.section	.text.com_usart_init,"ax",%progbits
	.hidden	com_usart_init          @ -- Begin function com_usart_init
	.globl	com_usart_init
	.p2align	2
	.type	com_usart_init,%function
	.code	16                      @ @com_usart_init
	.thumb_func
com_usart_init:
.Lfunc_begin5:
	.loc	2 255 0 is_stmt 1       @ ../User/main.c:255:0
	.fnstart
	.cfi_startproc
@ %bb.0:
	.save	{r7, lr}
	push	{r7, lr}
	.cfi_def_cfa_offset 8
	.cfi_offset lr, -4
	.cfi_offset r7, -8
	.pad	#16
	sub	sp, #16
	.cfi_def_cfa_offset 24
	ldr	r0, __arm_cp.5_0
.Ltmp41:
	.loc	2 259 5 prologue_end    @ ../User/main.c:259:5
	bl	rcu_periph_clock_enable
	.loc	2 261 2                 @ ../User/main.c:261:2
	ldr	r0, __arm_cp.5_1
	adds	r1, r0, #2
	movs	r2, #3
	movs	r3, #1
	str	r0, [sp, #12]           @ 4-byte Spill
	mov	r0, r2
	mov	r2, r3
	bl	flash_read_MultiBytes
	ldr	r1, __arm_cp.5_2
	.loc	2 263 5                 @ ../User/main.c:263:5
	str	r0, [sp, #8]            @ 4-byte Spill
	mov	r0, r1
	bl	usart_deinit
	.loc	2 264 21                @ ../User/main.c:264:21
	ldr	r0, [sp, #12]           @ 4-byte Reload
	ldrb	r1, [r0, #2]
	.loc	2 264 5 is_stmt 0       @ ../User/main.c:264:5
	subs	r1, r1, #1
	cmp	r1, #6
	str	r1, [sp, #4]            @ 4-byte Spill
	bhi	.LBB5_10
@ %bb.1:
	.loc	2 0 5                   @ ../User/main.c:0:5
	ldr	r0, [sp, #4]            @ 4-byte Reload
	lsls	r1, r0, #2
	adr	r2, .LJTI5_0
	adds	r1, r2, r1
	mov	pc, r1
@ %bb.2:
	.p2align	2
.LJTI5_0:
	b.w	.LBB5_3
	b.w	.LBB5_4
	b.w	.LBB5_5
	b.w	.LBB5_6
	b.w	.LBB5_7
	b.w	.LBB5_8
	b.w	.LBB5_9
.LBB5_3:
	ldr	r0, __arm_cp.5_2
	movw	r1, #2400
.Ltmp42:
	.loc	2 267 4 is_stmt 1       @ ../User/main.c:267:4
	bl	usart_baudrate_set
	.loc	2 268 4                 @ ../User/main.c:268:4
	b	.LBB5_11
.LBB5_4:
	.loc	2 0 4 is_stmt 0         @ ../User/main.c:0:4
	ldr	r0, __arm_cp.5_2
	movw	r1, #4800
	.loc	2 271 4 is_stmt 1       @ ../User/main.c:271:4
	bl	usart_baudrate_set
	.loc	2 272 4                 @ ../User/main.c:272:4
	b	.LBB5_11
.LBB5_5:
	.loc	2 0 4 is_stmt 0         @ ../User/main.c:0:4
	ldr	r0, __arm_cp.5_2
	movw	r1, #9600
	.loc	2 275 4 is_stmt 1       @ ../User/main.c:275:4
	bl	usart_baudrate_set
	.loc	2 276 4                 @ ../User/main.c:276:4
	b	.LBB5_11
.LBB5_6:
	.loc	2 0 4 is_stmt 0         @ ../User/main.c:0:4
	ldr	r0, __arm_cp.5_2
	movw	r1, #19200
	.loc	2 279 4 is_stmt 1       @ ../User/main.c:279:4
	bl	usart_baudrate_set
	.loc	2 280 4                 @ ../User/main.c:280:4
	b	.LBB5_11
.LBB5_7:
	.loc	2 0 4 is_stmt 0         @ ../User/main.c:0:4
	ldr	r0, __arm_cp.5_2
	movw	r1, #38400
	.loc	2 283 4 is_stmt 1       @ ../User/main.c:283:4
	bl	usart_baudrate_set
	.loc	2 284 4                 @ ../User/main.c:284:4
	b	.LBB5_11
.LBB5_8:
	.loc	2 0 4 is_stmt 0         @ ../User/main.c:0:4
	ldr	r0, __arm_cp.5_2
	movw	r1, #57600
	.loc	2 287 4 is_stmt 1       @ ../User/main.c:287:4
	bl	usart_baudrate_set
	.loc	2 288 4                 @ ../User/main.c:288:4
	b	.LBB5_11
.LBB5_9:
	.loc	2 0 4 is_stmt 0         @ ../User/main.c:0:4
	movs	r0, #225
	lsls	r1, r0, #9
	ldr	r0, __arm_cp.5_2
	.loc	2 291 4 is_stmt 1       @ ../User/main.c:291:4
	bl	usart_baudrate_set
	.loc	2 292 4                 @ ../User/main.c:292:4
	b	.LBB5_11
.LBB5_10:
	.loc	2 0 4 is_stmt 0         @ ../User/main.c:0:4
	ldr	r0, __arm_cp.5_2
	movw	r1, #9600
	.loc	2 294 4 is_stmt 1       @ ../User/main.c:294:4
	bl	usart_baudrate_set
	.loc	2 295 4                 @ ../User/main.c:295:4
	b	.LBB5_11
.Ltmp43:
.LBB5_11:
	.loc	2 300 2                 @ ../User/main.c:300:2
	bl	rs485_Init
	ldr	r0, __arm_cp.5_2
	movs	r1, #4
	.loc	2 302 5                 @ ../User/main.c:302:5
	str	r0, [sp]                @ 4-byte Spill
	bl	usart_receive_config
	movs	r1, #8
	.loc	2 303 5                 @ ../User/main.c:303:5
	ldr	r0, [sp]                @ 4-byte Reload
	bl	usart_transmit_config
	.loc	2 305 5                 @ ../User/main.c:305:5
	ldr	r0, [sp]                @ 4-byte Reload
	bl	usart_enable
	.loc	2 306 1                 @ ../User/main.c:306:1
	add	sp, #16
	pop	{r7, pc}
.Ltmp44:
	.p2align	2
@ %bb.12:
	.loc	2 0 1 is_stmt 0         @ ../User/main.c:0:1
__arm_cp.5_0:
	.long	1550                    @ 0x60e
.Lcpi_end14:
	.size	__arm_cp.5_0, .Lcpi_end14-__arm_cp.5_0
__arm_cp.5_1:
	.long	UserPara
.Lcpi_end15:
	.size	__arm_cp.5_1, .Lcpi_end15-__arm_cp.5_1
__arm_cp.5_2:
	.long	1073821696              @ 0x40013800
.Lcpi_end16:
	.size	__arm_cp.5_2, .Lcpi_end16-__arm_cp.5_2
.Lfunc_end5:
	.size	com_usart_init, .Lfunc_end5-com_usart_init
	.cfi_endproc
	.cantunwind
	.fnend
                                        @ -- End function
	.section	.text.fputc,"ax",%progbits
	.hidden	fputc                   @ -- Begin function fputc
	.globl	fputc
	.p2align	2
	.type	fputc,%function
	.code	16                      @ @fputc
	.thumb_func
fputc:
.Lfunc_begin6:
	.loc	2 313 0 is_stmt 1       @ ../User/main.c:313:0
	.fnstart
	.cfi_startproc
@ %bb.0:
	.save	{r7, lr}
	push	{r7, lr}
	.cfi_def_cfa_offset 8
	.cfi_offset lr, -4
	.cfi_offset r7, -8
	.pad	#8
	sub	sp, #8
	.cfi_def_cfa_offset 16
	str	r0, [sp, #4]
	str	r1, [sp]
	add	r0, sp, #4
.Ltmp45:
	.loc	2 314 43 prologue_end   @ ../User/main.c:314:43
	ldrb	r1, [r0]
	ldr	r0, __arm_cp.6_0
	.loc	2 314 5 is_stmt 0       @ ../User/main.c:314:5
	bl	usart_data_transmit
	.loc	2 315 5 is_stmt 1       @ ../User/main.c:315:5
	b	.LBB6_1
.LBB6_1:                                @ =>This Inner Loop Header: Depth=1
	.loc	2 0 5 is_stmt 0         @ ../User/main.c:0:5
	ldr	r0, __arm_cp.6_0
	ldr	r1, __arm_cp.6_1
	.loc	2 315 20                @ ../User/main.c:315:20
	bl	usart_flag_get
	.loc	2 315 5                 @ ../User/main.c:315:5
	cmp	r0, #0
	bne	.LBB6_3
	b	.LBB6_2
.LBB6_2:                                @   in Loop: Header=BB6_1 Depth=1
	b	.LBB6_1
.LBB6_3:
	.loc	2 316 12 is_stmt 1      @ ../User/main.c:316:12
	ldr	r0, [sp, #4]
	.loc	2 316 5 is_stmt 0       @ ../User/main.c:316:5
	add	sp, #8
	pop	{r7, pc}
.Ltmp46:
	.p2align	2
@ %bb.4:
	.loc	2 0 5                   @ ../User/main.c:0:5
__arm_cp.6_0:
	.long	1073821696              @ 0x40013800
.Lcpi_end17:
	.size	__arm_cp.6_0, .Lcpi_end17-__arm_cp.6_0
__arm_cp.6_1:
	.long	1799                    @ 0x707
.Lcpi_end18:
	.size	__arm_cp.6_1, .Lcpi_end18-__arm_cp.6_1
.Lfunc_end6:
	.size	fputc, .Lfunc_end6-fputc
	.cfi_endproc
	.cantunwind
	.fnend
                                        @ -- End function
	.hidden	receive                 @ @receive
	.type	receive,%object
	.section	.data.receive,"aw",%progbits
	.globl	receive
receive:
.Lreceive$local:
	.byte	1                       @ 0x1
	.size	receive, 1

	.hidden	receive1                @ @receive1
	.type	receive1,%object
	.section	.bss.receive1,"aw",%nobits
	.globl	receive1
	.p2align	2
receive1:
.Lreceive1$local:
	.long	0                       @ 0x0
	.size	receive1, 4

	.hidden	tt1                     @ @tt1
	.type	tt1,%object
	.section	.bss.tt1,"aw",%nobits
	.globl	tt1
	.p2align	1
tt1:
.Ltt1$local:
	.short	0                       @ 0x0
	.size	tt1, 2

	.hidden	time1                   @ @time1
	.type	time1,%object
	.section	.bss.time1,"aw",%nobits
	.globl	time1
	.p2align	2
time1:
.Ltime1$local:
	.long	0                       @ 0x0
	.size	time1, 4

	.hidden	transmitter_buffer      @ @transmitter_buffer
	.type	transmitter_buffer,%object
	.section	.data.transmitter_buffer,"aw",%progbits
	.globl	transmitter_buffer
transmitter_buffer:
.Ltransmitter_buffer$local:
	.asciz	"\n\rUSART interrupt test\n\r"
	.size	transmitter_buffer, 25

	.hidden	time_tick               @ @time_tick
	.type	time_tick,%object
	.section	.data.time_tick,"aw",%progbits
	.globl	time_tick
time_tick:
.Ltime_tick$local:
	.byte	10                      @ 0xa
	.size	time_tick, 1

	.hidden	tx_buffer               @ @tx_buffer
	.type	tx_buffer,%object
	.section	.data.tx_buffer,"aw",%progbits
	.globl	tx_buffer
tx_buffer:
.Ltx_buffer$local:
	.ascii	"\000\001\002\003\004\005\006\007\b\t\n\013\f\r\016\017\020\021\022\023\024\025\026\027\030\031\032\033\034\035\036\037 !\"#$%&'()*+,-./0123456789:;<=>?@ABCDEFGHIJKLMNOPQRSTUVWXYZ[\\]^_`abcdefghijklmnopqrstuvwxyz{|}~\177\200\201\202\203\204\205\206\207\210\211\212\213\214\215\216\217\220\221\222\223\224\225\226\227\230\231\232\233\234\235\236\237\240\241\242\243\244\245\246\247\250\251\252\253\254\255\256\257\260\261\262\263\264\265\266\267\270\271\272\273\274\275\276\277\300\301\302\303\304\305\306\307\310\311\312\313\314\315\316\317\320\321\322\323\324\325\326\327\330\331\332\333\334\335\336\337\340\341\342\343\344\345\346\347\350\351\352\353\354\355\356\357\360\361\362\363\364\365\366\367\370\371\372\373\374\375\376\377"
	.size	tx_buffer, 256

	.hidden	current_sta             @ @current_sta
	.type	current_sta,%object
	.section	.bss.current_sta,"aw",%nobits
	.globl	current_sta
current_sta:
.Lcurrent_sta$local:
	.byte	0                       @ 0x0
	.size	current_sta, 1

	.type	.L__const.main.ch,%object @ @__const.main.ch
	.section	.rodata.str1.1,"aMS",%progbits,1
.L__const.main.ch:
	.asciz	"dggsgawegf\r\n"
	.size	.L__const.main.ch, 13

	.hidden	bou                     @ @bou
	.type	bou,%object
	.section	.bss.bou,"aw",%nobits
	.globl	bou
bou:
.Lbou$local:
	.byte	0                       @ 0x0
	.size	bou, 1

	.hidden	bou1                    @ @bou1
	.type	bou1,%object
	.section	.bss.bou1,"aw",%nobits
	.globl	bou1
bou1:
.Lbou1$local:
	.byte	0                       @ 0x0
	.size	bou1, 1

	.file	7 "D:\\Keil_v5\\ARM\\ARMCLANG\\Bin\\..\\include" "stdio.h"
	.section	".note.GNU-stack","",%progbits
	.eabi_attribute	30, 6	@ Tag_ABI_optimization_goals
	.ARM_attribute	16, 1	@ Tag_AV_eba