	.text
	.syntax unified
	.eabi_attribute	67, "2.09"	@ Tag_conformance
	.cpu	cortex-m23
	.eabi_attribute	6, 16	@ Tag_CPU_arch
	.eabi_attribute	7, 77	@ Tag_CPU_arch_profile
	.eabi_attribute	8, 0	@ Tag_ARM_ISA_use
	.eabi_attribute	9, 3	@ Tag_THUMB_ISA_use
	.eabi_attribute	34, 0	@ Tag_CPU_unaligned_access
	.eabi_attribute	17, 1	@ Tag_ABI_PCS_GOT_use
	.eabi_attribute	20, 2	@ Tag_ABI_FP_denormal
	.eabi_attribute	21, 0	@ Tag_ABI_FP_exceptions
	.eabi_attribute	23, 1	@ Tag_ABI_FP_number_model
	.eabi_attribute	24, 1	@ Tag_ABI_align_needed
	.eabi_attribute	25, 1	@ Tag_ABI_align_preserved
	.eabi_attribute	38, 1	@ Tag_ABI_FP_16bit_format
	.eabi_attribute	18, 2	@ Tag_ABI_PCS_wchar_t
	.eabi_attribute	26, 1	@ Tag_ABI_enum_size
	.eabi_attribute	14, 0	@ Tag_ABI_PCS_R9_use
	.file	"modbus_asc.c"
	.file	1 "D:\\Keil_v5\\ARM\\ARMCLANG\\Bin\\..\\include" "stdint.h"
	.file	2 "E:\\project\\product\\GD32\\E230 - TH - \345\211\257\346\234\254\\MDK-ARM" "../APP/Src/modbus_asc.c"
	.file	3 "D:/Keil_v5\\Arm\\Packs\\ARM\\CMSIS\\5.7.0\\CMSIS\\Core\\Include" "core_cm23.h"
	.section	.text.MBASC_GetSlaveAddr,"ax",%progbits
	.hidden	MBASC_GetSlaveAddr      @ -- Begin function MBASC_GetSlaveAddr
	.globl	MBASC_GetSlaveAddr
	.p2align	1
	.type	MBASC_GetSlaveAddr,%function
	.code	16                      @ @MBASC_GetSlaveAddr
	.thumb_func
MBASC_GetSlaveAddr:
.Lfunc_begin0:
	.loc	2 44 0                  @ ../APP/Src/modbus_asc.c:44:0
	.fnstart
	.cfi_sections .debug_frame
	.cfi_startproc
@ %bb.0:
	.pad	#4
	sub	sp, #4
	.cfi_def_cfa_offset 4
	str	r0, [sp]
.Ltmp0:
	.loc	2 45 12 prologue_end    @ ../APP/Src/modbus_asc.c:45:12
	ldr	r0, [sp]
	ldrb	r0, [r0]
	.loc	2 45 5 is_stmt 0        @ ../APP/Src/modbus_asc.c:45:5
	add	sp, #4
	bx	lr
.Ltmp1:
.Lfunc_end0:
	.size	MBASC_GetSlaveAddr, .Lfunc_end0-MBASC_GetSlaveAddr
	.cfi_endproc
	.cantunwind
	.fnend
                                        @ -- End function
	.section	.text.MBASC_SendMsg,"ax",%progbits
	.hidden	MBASC_SendMsg           @ -- Begin function MBASC_SendMsg
	.globl	MBASC_SendMsg
	.p2align	1
	.type	MBASC_SendMsg,%function
	.code	16                      @ @MBASC_SendMsg
	.thumb_func
MBASC_SendMsg:
.Lfunc_begin1:
	.loc	2 61 0 is_stmt 1        @ ../APP/Src/modbus_asc.c:61:0
	.fnstart
	.cfi_startproc
@ %bb.0:
	.save	{r7, lr}
	push	{r7, lr}
	.cfi_def_cfa_offset 8
	.cfi_offset lr, -4
	.cfi_offset r7, -8
	.pad	#8
	sub	sp, #8
	.cfi_def_cfa_offset 16
	mov	r2, r1
	str	r0, [sp, #4]
	mov	r0, sp
	strb	r1, [r0]
.Ltmp2:
	.loc	2 62 32 prologue_end    @ ../APP/Src/modbus_asc.c:62:32
	ldr	r0, [sp, #4]
	ldrb	r0, [r0]
.Ltmp3:
	.loc	2 62 8 is_stmt 0        @ ../APP/Src/modbus_asc.c:62:8
	cmp	r0, #0
	beq	.LBB1_2
	b	.LBB1_1
.LBB1_1:
	.loc	2 0 8                   @ ../APP/Src/modbus_asc.c:0:8
	movs	r0, #50
.Ltmp4:
	.loc	2 64 9 is_stmt 1        @ ../APP/Src/modbus_asc.c:64:9
	bl	Delay_Ms
	.loc	2 65 32                 @ ../APP/Src/modbus_asc.c:65:32
	ldr	r0, [sp, #4]
	mov	r1, sp
	.loc	2 65 39 is_stmt 0       @ ../APP/Src/modbus_asc.c:65:39
	ldrb	r1, [r1]
	.loc	2 65 9                  @ ../APP/Src/modbus_asc.c:65:9
	bl	MODBUS_ASCII_SendData1
	.loc	2 66 5 is_stmt 1        @ ../APP/Src/modbus_asc.c:66:5
	b	.LBB1_2
.Ltmp5:
.LBB1_2:
	.loc	2 67 1                  @ ../APP/Src/modbus_asc.c:67:1
	add	sp, #8
	pop	{r7, pc}
.Ltmp6:
.Lfunc_end1:
	.size	MBASC_SendMsg, .Lfunc_end1-MBASC_SendMsg
	.cfi_endproc
	.cantunwind
	.fnend
                                        @ -- End function
	.section	.text.MBASC_SendMsg_NoLimit,"ax",%progbits
	.hidden	MBASC_SendMsg_NoLimit   @ -- Begin function MBASC_SendMsg_NoLimit
	.globl	MBASC_SendMsg_NoLimit
	.p2align	1
	.type	MBASC_SendMsg_NoLimit,%function
	.code	16                      @ @MBASC_SendMsg_NoLimit
	.thumb_func
MBASC_SendMsg_NoLimit:
.Lfunc_begin2:
	.loc	2 81 0                  @ ../APP/Src/modbus_asc.c:81:0
	.fnstart
	.cfi_startproc
@ %bb.0:
	.save	{r7, lr}
	push	{r7, lr}
	.cfi_def_cfa_offset 8
	.cfi_offset lr, -4
	.cfi_offset r7, -8
	.pad	#16
	sub	sp, #16
	.cfi_def_cfa_offset 24
	mov	r2, r1
	str	r0, [sp, #12]
	add	r0, sp, #8
	strb	r1, [r0]
	movs	r1, #50
.Ltmp7:
	.loc	2 82 5 prologue_end     @ ../APP/Src/modbus_asc.c:82:5
	str	r0, [sp, #4]            @ 4-byte Spill
	mov	r0, r1
	str	r2, [sp]                @ 4-byte Spill
	bl	Delay_Ms
	.loc	2 83 27                 @ ../APP/Src/modbus_asc.c:83:27
	ldr	r0, [sp, #12]
	.loc	2 83 39 is_stmt 0       @ ../APP/Src/modbus_asc.c:83:39
	ldr	r1, [sp, #4]            @ 4-byte Reload
	ldrb	r1, [r1]
	.loc	2 83 5                  @ ../APP/Src/modbus_asc.c:83:5
	bl	MODBUS_ASCII_SendData
	.loc	2 84 1 is_stmt 1        @ ../APP/Src/modbus_asc.c:84:1
	add	sp, #16
	pop	{r7, pc}
.Ltmp8:
.Lfunc_end2:
	.size	MBASC_SendMsg_NoLimit, .Lfunc_end2-MBASC_SendMsg_NoLimit
	.cfi_endproc
	.cantunwind
	.fnend
                                        @ -- End function
	.section	.text.MBASC_SendErr,"ax",%progbits
	.hidden	MBASC_SendErr           @ -- Begin function MBASC_SendErr
	.globl	MBASC_SendErr
	.p2align	2
	.type	MBASC_SendErr,%function
	.code	16                      @ @MBASC_SendErr
	.thumb_func
MBASC_SendErr:
.Lfunc_begin3:
	.loc	2 98 0                  @ ../APP/Src/modbus_asc.c:98:0
	.fnstart
	.cfi_startproc
@ %bb.0:
	.save	{r4, r5, r7, lr}
	push	{r4, r5, r7, lr}
	.cfi_def_cfa_offset 16
	.cfi_offset lr, -4
	.cfi_offset r7, -8
	.cfi_offset r5, -12
	.cfi_offset r4, -16
	.pad	#16
	sub	sp, #16
	.cfi_def_cfa_offset 32
	mov	r1, r0
	add	r2, sp, #12
	strb	r0, [r2]
.Ltmp9:
	.loc	2 99 13 prologue_end    @ ../APP/Src/modbus_asc.c:99:13
	ldr	r0, __arm_cp.3_0
	movs	r2, #1
	strb	r2, [r0]
	.loc	2 100 20                @ ../APP/Src/modbus_asc.c:100:20
	ldrb	r2, [r0]
	adds	r3, r2, #1
	strb	r3, [r0]
	.loc	2 100 5 is_stmt 0       @ ../APP/Src/modbus_asc.c:100:5
	ldr	r3, __arm_cp.3_1
	.loc	2 100 24                @ ../APP/Src/modbus_asc.c:100:24
	ldrb	r4, [r3, r2]
	movs	r5, #128
	orrs	r4, r5
	strb	r4, [r3, r2]
	.loc	2 101 26 is_stmt 1      @ ../APP/Src/modbus_asc.c:101:26
	ldr	r2, [sp, #12]
	.loc	2 101 20 is_stmt 0      @ ../APP/Src/modbus_asc.c:101:20
	ldrb	r4, [r0]
	adds	r5, r4, #1
	strb	r5, [r0]
	.loc	2 101 24                @ ../APP/Src/modbus_asc.c:101:24
	strb	r2, [r3, r4]
	.loc	2 102 28 is_stmt 1      @ ../APP/Src/modbus_asc.c:102:28
	ldrb	r0, [r0]
	.loc	2 102 5 is_stmt 0       @ ../APP/Src/modbus_asc.c:102:5
	str	r0, [sp, #8]            @ 4-byte Spill
	mov	r0, r3
	ldr	r2, [sp, #8]            @ 4-byte Reload
	str	r1, [sp, #4]            @ 4-byte Spill
	mov	r1, r2
	bl	MBASC_SendMsg
	.loc	2 103 1 is_stmt 1       @ ../APP/Src/modbus_asc.c:103:1
	add	sp, #16
	pop	{r4, r5, r7, pc}
.Ltmp10:
	.p2align	2
@ %bb.1:
	.loc	2 0 1 is_stmt 0         @ ../APP/Src/modbus_asc.c:0:1
__arm_cp.3_0:
	.long	SendLen
.Lcpi_end0:
	.size	__arm_cp.3_0, .Lcpi_end0-__arm_cp.3_0
__arm_cp.3_1:
	.long	SendBuf
.Lcpi_end1:
	.size	__arm_cp.3_1, .Lcpi_end1-__arm_cp.3_1
.Lfunc_end3:
	.size	MBASC_SendErr, .Lfunc_end3-MBASC_SendErr
	.cfi_endproc
	.cantunwind
	.fnend
                                        @ -- End function
	.section	.text.MBASC_Fun03,"ax",%progbits
	.hidden	MBASC_Fun03             @ -- Begin function MBASC_Fun03
	.globl	MBASC_Fun03
	.p2align	2
	.type	MBASC_Fun03,%function
	.code	16                      @ @MBASC_Fun03
	.thumb_func
MBASC_Fun03:
.Lfunc_begin4:
	.loc	2 118 0 is_stmt 1       @ ../APP/Src/modbus_asc.c:118:0
	.fnstart
	.cfi_startproc
@ %bb.0:
	.save	{r4, r5, r7, lr}
	push	{r4, r5, r7, lr}
	.cfi_def_cfa_offset 16
	.cfi_offset lr, -4
	.cfi_offset r7, -8
	.cfi_offset r5, -12
	.cfi_offset r4, -16
	.pad	#40
	sub	sp, #40
	.cfi_def_cfa_offset 56
	add	r0, sp, #28
	movs	r1, #0
.Ltmp11:
	.loc	2 122 14 prologue_end   @ ../APP/Src/modbus_asc.c:122:14
	strh	r1, [r0]
	.loc	2 125 16                @ ../APP/Src/modbus_asc.c:125:16
	ldr	r2, __arm_cp.4_0
	ldrb	r3, [r2, #2]
	add	r4, sp, #24
	.loc	2 125 14 is_stmt 0      @ ../APP/Src/modbus_asc.c:125:14
	strb	r3, [r4]
	.loc	2 126 16 is_stmt 1      @ ../APP/Src/modbus_asc.c:126:16
	ldrb	r3, [r2, #3]
	add	r4, sp, #20
	.loc	2 126 14 is_stmt 0      @ ../APP/Src/modbus_asc.c:126:14
	strb	r3, [r4]
	.loc	2 128 21 is_stmt 1      @ ../APP/Src/modbus_asc.c:128:21
	ldrb	r3, [r2, #4]
	.loc	2 128 47 is_stmt 0      @ ../APP/Src/modbus_asc.c:128:47
	lsls	r3, r3, #8
	.loc	2 128 55                @ ../APP/Src/modbus_asc.c:128:55
	ldrb	r5, [r2, #5]
	.loc	2 128 53                @ ../APP/Src/modbus_asc.c:128:53
	adds	r3, r3, r5
	.loc	2 128 18                @ ../APP/Src/modbus_asc.c:128:18
	strh	r3, [r0]
	.loc	2 130 13 is_stmt 1      @ ../APP/Src/modbus_asc.c:130:13
	ldr	r0, __arm_cp.4_1
	strb	r1, [r0]
	.loc	2 131 26                @ ../APP/Src/modbus_asc.c:131:26
	str	r0, [sp, #12]           @ 4-byte Spill
	mov	r0, r2
	str	r4, [sp, #8]            @ 4-byte Spill
	bl	MBASC_GetSlaveAddr
	.loc	2 131 20 is_stmt 0      @ ../APP/Src/modbus_asc.c:131:20
	ldr	r1, [sp, #12]           @ 4-byte Reload
	ldrb	r2, [r1]
	adds	r3, r2, #1
	strb	r3, [r1]
	.loc	2 131 5                 @ ../APP/Src/modbus_asc.c:131:5
	ldr	r3, __arm_cp.4_2
	.loc	2 131 24                @ ../APP/Src/modbus_asc.c:131:24
	strb	r0, [r3, r2]
	.loc	2 132 20 is_stmt 1      @ ../APP/Src/modbus_asc.c:132:20
	ldrb	r0, [r1]
	adds	r2, r0, #1
	strb	r2, [r1]
	movs	r2, #3
	.loc	2 132 24 is_stmt 0      @ ../APP/Src/modbus_asc.c:132:24
	strb	r2, [r3, r0]
	.loc	2 133 26 is_stmt 1      @ ../APP/Src/modbus_asc.c:133:26
	ldr	r0, [sp, #28]
	.loc	2 133 39 is_stmt 0      @ ../APP/Src/modbus_asc.c:133:39
	lsls	r0, r0, #1
	.loc	2 133 20                @ ../APP/Src/modbus_asc.c:133:20
	ldrb	r2, [r1]
	adds	r4, r2, #1
	strb	r4, [r1]
	.loc	2 133 24                @ ../APP/Src/modbus_asc.c:133:24
	strb	r0, [r3, r2]
.Ltmp12:
	.loc	2 135 14 is_stmt 1      @ ../APP/Src/modbus_asc.c:135:14
	ldr	r0, [sp, #8]            @ 4-byte Reload
	ldrb	r2, [r0]
	.loc	2 135 58 is_stmt 0      @ ../APP/Src/modbus_asc.c:135:58
	cmp	r2, #48
	blt	.LBB4_7
	b	.LBB4_1
.LBB4_1:
	.loc	2 0 58                  @ ../APP/Src/modbus_asc.c:0:58
	add	r0, sp, #20
	.loc	2 135 62                @ ../APP/Src/modbus_asc.c:135:62
	ldrb	r0, [r0]
	.loc	2 136 9 is_stmt 1       @ ../APP/Src/modbus_asc.c:136:9
	cmp	r0, #79
	bgt	.LBB4_7
	b	.LBB4_2
.LBB4_2:
	.loc	2 0 9 is_stmt 0         @ ../APP/Src/modbus_asc.c:0:9
	add	r0, sp, #20
	.loc	2 136 13                @ ../APP/Src/modbus_asc.c:136:13
	ldrb	r0, [r0]
	add	r1, sp, #28
	.loc	2 136 24                @ ../APP/Src/modbus_asc.c:136:24
	ldrh	r1, [r1]
	.loc	2 136 22                @ ../APP/Src/modbus_asc.c:136:22
	adds	r0, r0, r1
	.loc	2 136 76                @ ../APP/Src/modbus_asc.c:136:76
	cmp	r0, #80
	bgt	.LBB4_7
	b	.LBB4_3
.LBB4_3:
	.loc	2 0 76                  @ ../APP/Src/modbus_asc.c:0:76
	add	r0, sp, #28
	.loc	2 136 85                @ ../APP/Src/modbus_asc.c:136:85
	ldrh	r0, [r0]
	.loc	2 137 9 is_stmt 1       @ ../APP/Src/modbus_asc.c:137:9
	cmp	r0, #0
	beq	.LBB4_7
	b	.LBB4_4
.LBB4_4:
	.loc	2 0 9 is_stmt 0         @ ../APP/Src/modbus_asc.c:0:9
	add	r0, sp, #24
	.loc	2 137 14                @ ../APP/Src/modbus_asc.c:137:14
	ldrb	r0, [r0]
	.loc	2 137 35                @ ../APP/Src/modbus_asc.c:137:35
	ldr	r1, __arm_cp.4_3
	ldrb	r1, [r1]
	.loc	2 137 51                @ ../APP/Src/modbus_asc.c:137:51
	cmp	r0, r1
	beq	.LBB4_8
	b	.LBB4_5
.LBB4_5:
	.loc	2 0 51                  @ ../APP/Src/modbus_asc.c:0:51
	add	r0, sp, #24
	.loc	2 137 55                @ ../APP/Src/modbus_asc.c:137:55
	ldrb	r0, [r0]
	.loc	2 137 76                @ ../APP/Src/modbus_asc.c:137:76
	ldr	r1, __arm_cp.4_3
	ldrb	r1, [r1, #1]
	.loc	2 138 9 is_stmt 1       @ ../APP/Src/modbus_asc.c:138:9
	cmp	r0, r1
	beq	.LBB4_8
	b	.LBB4_6
.LBB4_6:
	.loc	2 0 9 is_stmt 0         @ ../APP/Src/modbus_asc.c:0:9
	add	r0, sp, #24
	.loc	2 138 13                @ ../APP/Src/modbus_asc.c:138:13
	ldrb	r0, [r0]
.Ltmp13:
	.loc	2 135 9 is_stmt 1       @ ../APP/Src/modbus_asc.c:135:9
	cmp	r0, #0
	beq	.LBB4_8
	b	.LBB4_7
.LBB4_7:
	.loc	2 0 9 is_stmt 0         @ ../APP/Src/modbus_asc.c:0:9
	movs	r0, #2
.Ltmp14:
	.loc	2 140 9 is_stmt 1       @ ../APP/Src/modbus_asc.c:140:9
	bl	MBASC_SendErr
	.loc	2 141 9                 @ ../APP/Src/modbus_asc.c:141:9
	b	.LBB4_30
.Ltmp15:
.LBB4_8:
	.loc	2 0 9 is_stmt 0         @ ../APP/Src/modbus_asc.c:0:9
	add	r0, sp, #16
	movs	r1, #0
.Ltmp16:
	.loc	2 144 18 is_stmt 1      @ ../APP/Src/modbus_asc.c:144:18
	strb	r1, [r0]
	.loc	2 144 10 is_stmt 0      @ ../APP/Src/modbus_asc.c:144:10
	b	.LBB4_9
.LBB4_9:                                @ =>This Loop Header: Depth=1
                                        @     Child Loop BB4_24 Depth 2
	.loc	2 0 10                  @ ../APP/Src/modbus_asc.c:0:10
	add	r0, sp, #16
.Ltmp17:
	.loc	2 144 25                @ ../APP/Src/modbus_asc.c:144:25
	ldrb	r0, [r0]
	add	r1, sp, #28
	.loc	2 144 29                @ ../APP/Src/modbus_asc.c:144:29
	ldrh	r1, [r1]
.Ltmp18:
	.loc	2 144 5                 @ ../APP/Src/modbus_asc.c:144:5
	cmp	r0, r1
	blt	.LBB4_10
	b	.LBB4_29
.LBB4_10:                               @   in Loop: Header=BB4_9 Depth=1
	.loc	2 0 5                   @ ../APP/Src/modbus_asc.c:0:5
	add	r0, sp, #20
.Ltmp19:
	.loc	2 146 17 is_stmt 1      @ ../APP/Src/modbus_asc.c:146:17
	ldrb	r0, [r0]
	.loc	2 146 9 is_stmt 0       @ ../APP/Src/modbus_asc.c:146:9
	subs	r0, #48
	cmp	r0, #18
	str	r0, [sp, #4]            @ 4-byte Spill
	bhi	.LBB4_22
@ %bb.11:                               @   in Loop: Header=BB4_9 Depth=1
	.loc	2 0 9                   @ ../APP/Src/modbus_asc.c:0:9
	ldr	r0, [sp, #4]            @ 4-byte Reload
	lsls	r1, r0, #2
	adr	r2, .LJTI4_0
	adds	r1, r2, r1
	mov	pc, r1
@ %bb.12:
	.p2align	2
.LJTI4_0:
	b.w	.LBB4_13
	b.w	.LBB4_17
	b.w	.LBB4_22
	b.w	.LBB4_22
	b.w	.LBB4_22
	b.w	.LBB4_22
	b.w	.LBB4_18
	b.w	.LBB4_22
	b.w	.LBB4_22
	b.w	.LBB4_22
	b.w	.LBB4_22
	b.w	.LBB4_22
	b.w	.LBB4_22
	b.w	.LBB4_22
	b.w	.LBB4_22
	b.w	.LBB4_22
	b.w	.LBB4_19
	b.w	.LBB4_20
	b.w	.LBB4_21
.LBB4_13:                               @   in Loop: Header=BB4_9 Depth=1
.Ltmp20:
	.loc	2 149 20 is_stmt 1      @ ../APP/Src/modbus_asc.c:149:20
	ldr	r0, __arm_cp.4_4
	ldrb	r0, [r0, #26]
.Ltmp21:
	.loc	2 149 16 is_stmt 0      @ ../APP/Src/modbus_asc.c:149:16
	cmp	r0, #0
	beq	.LBB4_15
	b	.LBB4_14
.LBB4_14:                               @   in Loop: Header=BB4_9 Depth=1
.Ltmp22:
	.loc	2 151 37 is_stmt 1      @ ../APP/Src/modbus_asc.c:151:37
	ldr	r0, __arm_cp.4_3
	ldrb	r0, [r0, #1]
	add	r1, sp, #32
	.loc	2 151 26 is_stmt 0      @ ../APP/Src/modbus_asc.c:151:26
	strh	r0, [r1]
	.loc	2 152 13 is_stmt 1      @ ../APP/Src/modbus_asc.c:152:13
	b	.LBB4_16
.Ltmp23:
.LBB4_15:                               @   in Loop: Header=BB4_9 Depth=1
	.loc	2 155 37                @ ../APP/Src/modbus_asc.c:155:37
	ldr	r0, __arm_cp.4_3
	ldrb	r0, [r0]
	add	r1, sp, #32
	.loc	2 155 26 is_stmt 0      @ ../APP/Src/modbus_asc.c:155:26
	strh	r0, [r1]
	b	.LBB4_16
.Ltmp24:
.LBB4_16:                               @   in Loop: Header=BB4_9 Depth=1
	.loc	2 157 13 is_stmt 1      @ ../APP/Src/modbus_asc.c:157:13
	b	.LBB4_23
.LBB4_17:                               @   in Loop: Header=BB4_9 Depth=1
	.loc	2 160 33                @ ../APP/Src/modbus_asc.c:160:33
	ldr	r0, __arm_cp.4_3
	ldrb	r0, [r0, #2]
	add	r1, sp, #32
	.loc	2 160 22 is_stmt 0      @ ../APP/Src/modbus_asc.c:160:22
	strh	r0, [r1]
	.loc	2 161 13 is_stmt 1      @ ../APP/Src/modbus_asc.c:161:13
	b	.LBB4_23
.LBB4_18:                               @   in Loop: Header=BB4_9 Depth=1
	.loc	2 164 47                @ ../APP/Src/modbus_asc.c:164:47
	ldr	r0, __arm_cp.4_4
	ldrb	r1, [r0, #26]
	.loc	2 164 24 is_stmt 0      @ ../APP/Src/modbus_asc.c:164:24
	adds	r0, r0, r1
	ldrb	r0, [r0, #24]
	add	r1, sp, #32
	.loc	2 164 22                @ ../APP/Src/modbus_asc.c:164:22
	strh	r0, [r1]
	.loc	2 165 13 is_stmt 1      @ ../APP/Src/modbus_asc.c:165:13
	b	.LBB4_23
.LBB4_19:                               @   in Loop: Header=BB4_9 Depth=1
	.loc	2 168 45                @ ../APP/Src/modbus_asc.c:168:45
	ldr	r0, __arm_cp.4_4
	ldrb	r1, [r0, #26]
	.loc	2 168 25 is_stmt 0      @ ../APP/Src/modbus_asc.c:168:25
	lsls	r1, r1, #1
	adds	r0, r0, r1
	ldrh	r0, [r0, #4]
	add	r1, sp, #32
	.loc	2 168 22                @ ../APP/Src/modbus_asc.c:168:22
	strh	r0, [r1]
	.loc	2 169 13 is_stmt 1      @ ../APP/Src/modbus_asc.c:169:13
	b	.LBB4_23
.LBB4_20:                               @   in Loop: Header=BB4_9 Depth=1
	.loc	2 172 44                @ ../APP/Src/modbus_asc.c:172:44
	ldr	r0, __arm_cp.4_4
	ldrb	r1, [r0, #26]
	.loc	2 172 24 is_stmt 0      @ ../APP/Src/modbus_asc.c:172:24
	lsls	r1, r1, #1
	adds	r0, r0, r1
	ldrh	r0, [r0, #8]
	add	r1, sp, #32
	.loc	2 172 22                @ ../APP/Src/modbus_asc.c:172:22
	strh	r0, [r1]
	.loc	2 173 13 is_stmt 1      @ ../APP/Src/modbus_asc.c:173:13
	b	.LBB4_23
.LBB4_21:                               @   in Loop: Header=BB4_9 Depth=1
	.loc	2 176 41                @ ../APP/Src/modbus_asc.c:176:41
	ldr	r0, __arm_cp.4_4
	ldrb	r1, [r0, #26]
	.loc	2 176 24 is_stmt 0      @ ../APP/Src/modbus_asc.c:176:24
	lsls	r1, r1, #2
	adds	r0, r0, r1
	ldr	r0, [r0, #16]
	add	r1, sp, #32
	.loc	2 176 22                @ ../APP/Src/modbus_asc.c:176:22
	strh	r0, [r1]
	.loc	2 177 13 is_stmt 1      @ ../APP/Src/modbus_asc.c:177:13
	b	.LBB4_23
.LBB4_22:                               @   in Loop: Header=BB4_9 Depth=1
	.loc	2 0 13 is_stmt 0        @ ../APP/Src/modbus_asc.c:0:13
	add	r0, sp, #32
	movs	r1, #0
	.loc	2 182 22 is_stmt 1      @ ../APP/Src/modbus_asc.c:182:22
	strh	r1, [r0]
	.loc	2 183 13                @ ../APP/Src/modbus_asc.c:183:13
	b	.LBB4_23
.Ltmp25:
.LBB4_23:                               @   in Loop: Header=BB4_9 Depth=1
	.loc	2 0 13 is_stmt 0        @ ../APP/Src/modbus_asc.c:0:13
	add	r0, sp, #36
	movs	r1, #2
.Ltmp26:
	.loc	2 185 16 is_stmt 1      @ ../APP/Src/modbus_asc.c:185:16
	strb	r1, [r0]
	.loc	2 185 14 is_stmt 0      @ ../APP/Src/modbus_asc.c:185:14
	b	.LBB4_24
.LBB4_24:                               @   Parent Loop BB4_9 Depth=1
                                        @ =>  This Inner Loop Header: Depth=2
	.loc	2 0 14                  @ ../APP/Src/modbus_asc.c:0:14
	add	r0, sp, #36
.Ltmp27:
	.loc	2 185 21                @ ../APP/Src/modbus_asc.c:185:21
	ldrb	r0, [r0]
.Ltmp28:
	.loc	2 185 9                 @ ../APP/Src/modbus_asc.c:185:9
	cmp	r0, #1
	blt	.LBB4_27
	b	.LBB4_25
.LBB4_25:                               @   in Loop: Header=BB4_24 Depth=2
	.loc	2 0 9                   @ ../APP/Src/modbus_asc.c:0:9
	add	r0, sp, #32
.Ltmp29:
	.loc	2 187 44 is_stmt 1      @ ../APP/Src/modbus_asc.c:187:44
	ldrh	r0, [r0]
	add	r1, sp, #36
	.loc	2 187 58 is_stmt 0      @ ../APP/Src/modbus_asc.c:187:58
	ldrb	r1, [r1]
	.loc	2 187 60                @ ../APP/Src/modbus_asc.c:187:60
	lsls	r1, r1, #3
	.loc	2 187 65                @ ../APP/Src/modbus_asc.c:187:65
	subs	r1, #8
	.loc	2 187 53                @ ../APP/Src/modbus_asc.c:187:53
	lsrs	r0, r1
	.loc	2 187 28                @ ../APP/Src/modbus_asc.c:187:28
	ldr	r1, __arm_cp.4_1
	ldrb	r2, [r1]
	adds	r3, r2, #1
	strb	r3, [r1]
	.loc	2 187 13                @ ../APP/Src/modbus_asc.c:187:13
	ldr	r1, __arm_cp.4_2
	.loc	2 187 32                @ ../APP/Src/modbus_asc.c:187:32
	strb	r0, [r1, r2]
	.loc	2 188 9 is_stmt 1       @ ../APP/Src/modbus_asc.c:188:9
	b	.LBB4_26
.Ltmp30:
.LBB4_26:                               @   in Loop: Header=BB4_24 Depth=2
	.loc	2 185 29                @ ../APP/Src/modbus_asc.c:185:29
	ldr	r0, [sp, #36]
	subs	r0, r0, #1
	add	r1, sp, #36
	strb	r0, [r1]
	.loc	2 185 9 is_stmt 0       @ ../APP/Src/modbus_asc.c:185:9
	b	.LBB4_24
.Ltmp31:
.LBB4_27:                               @   in Loop: Header=BB4_9 Depth=1
	.loc	2 189 5 is_stmt 1       @ ../APP/Src/modbus_asc.c:189:5
	b	.LBB4_28
.Ltmp32:
.LBB4_28:                               @   in Loop: Header=BB4_9 Depth=1
	.loc	2 144 51                @ ../APP/Src/modbus_asc.c:144:51
	ldr	r0, [sp, #20]
	adds	r0, r0, #1
	add	r1, sp, #20
	strb	r0, [r1]
	.loc	2 144 56 is_stmt 0      @ ../APP/Src/modbus_asc.c:144:56
	ldr	r0, [sp, #16]
	adds	r0, r0, #1
	add	r1, sp, #16
	strb	r0, [r1]
	.loc	2 144 5                 @ ../APP/Src/modbus_asc.c:144:5
	b	.LBB4_9
.Ltmp33:
.LBB4_29:
	.loc	2 192 36 is_stmt 1      @ ../APP/Src/modbus_asc.c:192:36
	ldr	r0, __arm_cp.4_1
	ldrb	r1, [r0]
	.loc	2 192 5 is_stmt 0       @ ../APP/Src/modbus_asc.c:192:5
	ldr	r0, __arm_cp.4_2
	bl	MBASC_SendMsg_NoLimit
	.loc	2 193 1 is_stmt 1       @ ../APP/Src/modbus_asc.c:193:1
	b	.LBB4_30
.LBB4_30:
	add	sp, #40
	pop	{r4, r5, r7, pc}
.Ltmp34:
	.p2align	2
@ %bb.31:
	.loc	2 0 1 is_stmt 0         @ ../APP/Src/modbus_asc.c:0:1
__arm_cp.4_0:
	.long	UARTx_RXBuff
.Lcpi_end2:
	.size	__arm_cp.4_0, .Lcpi_end2-__arm_cp.4_0
__arm_cp.4_1:
	.long	SendLen
.Lcpi_end3:
	.size	__arm_cp.4_1, .Lcpi_end3-__arm_cp.4_1
__arm_cp.4_2:
	.long	SendBuf
.Lcpi_end4:
	.size	__arm_cp.4_2, .Lcpi_end4-__arm_cp.4_2
__arm_cp.4_3:
	.long	UserPara
.Lcpi_end5:
	.size	__arm_cp.4_3, .Lcpi_end5-__arm_cp.4_3
__arm_cp.4_4:
	.long	T_H
.Lcpi_end6:
	.size	__arm_cp.4_4, .Lcpi_end6-__arm_cp.4_4
.Lfunc_end4:
	.size	MBASC_Fun03, .Lfunc_end4-MBASC_Fun03
	.cfi_endproc
	.cantunwind
	.fnend
                                        @ -- End function
	.section	.text.MBASC_Fun04,"ax",%progbits
	.hidden	MBASC_Fun04             @ -- Begin function MBASC_Fun04
	.globl	MBASC_Fun04
	.p2align	2
	.type	MBASC_Fun04,%function
	.code	16                      @ @MBASC_Fun04
	.thumb_func
MBASC_Fun04:
.Lfunc_begin5:
	.loc	2 208 0 is_stmt 1       @ ../APP/Src/modbus_asc.c:208:0
	.fnstart
	.cfi_startproc
@ %bb.0:
	.save	{r4, r5, r7, lr}
	push	{r4, r5, r7, lr}
	.cfi_def_cfa_offset 16
	.cfi_offset lr, -4
	.cfi_offset r7, -8
	.cfi_offset r5, -12
	.cfi_offset r4, -16
	.pad	#40
	sub	sp, #40
	.cfi_def_cfa_offset 56
	add	r0, sp, #28
	movs	r1, #0
.Ltmp35:
	.loc	2 213 14 prologue_end   @ ../APP/Src/modbus_asc.c:213:14
	strh	r1, [r0]
	add	r0, sp, #20
	.loc	2 215 14                @ ../APP/Src/modbus_asc.c:215:14
	strh	r1, [r0]
	.loc	2 216 24                @ ../APP/Src/modbus_asc.c:216:24
	ldr	r2, __arm_cp.5_0
	ldrb	r3, [r2, #2]
	add	r4, sp, #16
	.loc	2 216 13 is_stmt 0      @ ../APP/Src/modbus_asc.c:216:13
	strb	r3, [r4]
	.loc	2 219 18 is_stmt 1      @ ../APP/Src/modbus_asc.c:219:18
	ldrb	r3, [r2, #3]
	add	r4, sp, #32
	.loc	2 219 16 is_stmt 0      @ ../APP/Src/modbus_asc.c:219:16
	strb	r3, [r4]
	.loc	2 221 30 is_stmt 1      @ ../APP/Src/modbus_asc.c:221:30
	ldrb	r3, [r2, #4]
	.loc	2 221 46 is_stmt 0      @ ../APP/Src/modbus_asc.c:221:46
	lsls	r3, r3, #8
	.loc	2 221 54                @ ../APP/Src/modbus_asc.c:221:54
	ldrb	r5, [r2, #5]
	.loc	2 221 52                @ ../APP/Src/modbus_asc.c:221:52
	adds	r3, r3, r5
	.loc	2 221 18                @ ../APP/Src/modbus_asc.c:221:18
	strh	r3, [r0]
	.loc	2 223 13 is_stmt 1      @ ../APP/Src/modbus_asc.c:223:13
	ldr	r0, __arm_cp.5_1
	strb	r1, [r0]
	.loc	2 227 30                @ ../APP/Src/modbus_asc.c:227:30
	str	r0, [sp, #8]            @ 4-byte Spill
	mov	r0, r2
	str	r4, [sp, #4]            @ 4-byte Spill
	bl	MBASC_GetSlaveAddr
	.loc	2 227 24 is_stmt 0      @ ../APP/Src/modbus_asc.c:227:24
	ldr	r1, [sp, #8]            @ 4-byte Reload
	ldrb	r2, [r1]
	adds	r3, r2, #1
	strb	r3, [r1]
	.loc	2 227 9                 @ ../APP/Src/modbus_asc.c:227:9
	ldr	r3, __arm_cp.5_2
	.loc	2 227 28                @ ../APP/Src/modbus_asc.c:227:28
	strb	r0, [r3, r2]
	.loc	2 234 20 is_stmt 1      @ ../APP/Src/modbus_asc.c:234:20
	ldrb	r0, [r1]
	adds	r2, r0, #1
	strb	r2, [r1]
	movs	r2, #4
	.loc	2 234 24 is_stmt 0      @ ../APP/Src/modbus_asc.c:234:24
	strb	r2, [r3, r0]
	.loc	2 235 26 is_stmt 1      @ ../APP/Src/modbus_asc.c:235:26
	ldr	r0, [sp, #20]
	.loc	2 235 39 is_stmt 0      @ ../APP/Src/modbus_asc.c:235:39
	lsls	r0, r0, #1
	.loc	2 235 20                @ ../APP/Src/modbus_asc.c:235:20
	ldrb	r2, [r1]
	adds	r4, r2, #1
	strb	r4, [r1]
	.loc	2 235 24                @ ../APP/Src/modbus_asc.c:235:24
	strb	r0, [r3, r2]
.Ltmp36:
	.loc	2 237 13 is_stmt 1      @ ../APP/Src/modbus_asc.c:237:13
	ldr	r0, [sp, #4]            @ 4-byte Reload
	ldrb	r2, [r0]
	ldr	r3, __arm_cp.5_3
	.loc	2 238 5                 @ ../APP/Src/modbus_asc.c:238:5
	cmp	r2, r3
	bgt	.LBB5_2
	b	.LBB5_1
.LBB5_1:
	.loc	2 0 5 is_stmt 0         @ ../APP/Src/modbus_asc.c:0:5
	add	r0, sp, #32
	.loc	2 238 10                @ ../APP/Src/modbus_asc.c:238:10
	ldrb	r0, [r0]
	add	r1, sp, #20
	.loc	2 238 22                @ ../APP/Src/modbus_asc.c:238:22
	ldrh	r1, [r1]
	.loc	2 238 20                @ ../APP/Src/modbus_asc.c:238:20
	adds	r0, r0, r1
	ldr	r1, __arm_cp.5_4
	.loc	2 239 5 is_stmt 1       @ ../APP/Src/modbus_asc.c:239:5
	cmp	r0, r1
	blt	.LBB5_8
	b	.LBB5_2
.LBB5_2:
	.loc	2 0 5 is_stmt 0         @ ../APP/Src/modbus_asc.c:0:5
	add	r0, sp, #32
	.loc	2 239 10                @ ../APP/Src/modbus_asc.c:239:10
	ldrb	r0, [r0]
	ldr	r1, __arm_cp.5_5
	.loc	2 239 54                @ ../APP/Src/modbus_asc.c:239:54
	cmp	r0, r1
	blt	.LBB5_5
	b	.LBB5_3
.LBB5_3:
	.loc	2 0 54                  @ ../APP/Src/modbus_asc.c:0:54
	add	r0, sp, #32
	.loc	2 239 58                @ ../APP/Src/modbus_asc.c:239:58
	ldrb	r0, [r0]
	ldr	r1, __arm_cp.5_6
	.loc	2 240 5 is_stmt 1       @ ../APP/Src/modbus_asc.c:240:5
	cmp	r0, r1
	bgt	.LBB5_5
	b	.LBB5_4
.LBB5_4:
	.loc	2 0 5 is_stmt 0         @ ../APP/Src/modbus_asc.c:0:5
	add	r0, sp, #32
	.loc	2 240 10                @ ../APP/Src/modbus_asc.c:240:10
	ldrb	r0, [r0]
	add	r1, sp, #20
	.loc	2 240 22                @ ../APP/Src/modbus_asc.c:240:22
	ldrh	r1, [r1]
	.loc	2 240 20                @ ../APP/Src/modbus_asc.c:240:20
	adds	r0, r0, r1
	ldr	r1, __arm_cp.5_7
	.loc	2 241 5 is_stmt 1       @ ../APP/Src/modbus_asc.c:241:5
	cmp	r0, r1
	blt	.LBB5_8
	b	.LBB5_5
.LBB5_5:
	.loc	2 0 5 is_stmt 0         @ ../APP/Src/modbus_asc.c:0:5
	add	r0, sp, #32
	.loc	2 241 9                 @ ../APP/Src/modbus_asc.c:241:9
	ldrb	r0, [r0]
	movw	r1, #17792
	.loc	2 241 53                @ ../APP/Src/modbus_asc.c:241:53
	cmp	r0, r1
	blt	.LBB5_11
	b	.LBB5_6
.LBB5_6:
	.loc	2 0 53                  @ ../APP/Src/modbus_asc.c:0:53
	add	r0, sp, #32
	.loc	2 241 57                @ ../APP/Src/modbus_asc.c:241:57
	ldrb	r0, [r0]
	ldr	r1, __arm_cp.5_8
	.loc	2 242 5 is_stmt 1       @ ../APP/Src/modbus_asc.c:242:5
	cmp	r0, r1
	bgt	.LBB5_11
	b	.LBB5_7
.LBB5_7:
	.loc	2 0 5 is_stmt 0         @ ../APP/Src/modbus_asc.c:0:5
	add	r0, sp, #32
	.loc	2 242 10                @ ../APP/Src/modbus_asc.c:242:10
	ldrb	r0, [r0]
	add	r1, sp, #20
	.loc	2 242 22                @ ../APP/Src/modbus_asc.c:242:22
	ldrh	r1, [r1]
	.loc	2 242 20                @ ../APP/Src/modbus_asc.c:242:20
	adds	r0, r0, r1
	ldr	r1, __arm_cp.5_9
	.loc	2 243 5 is_stmt 1       @ ../APP/Src/modbus_asc.c:243:5
	cmp	r0, r1
	bgt	.LBB5_11
	b	.LBB5_8
.LBB5_8:
	.loc	2 0 5 is_stmt 0         @ ../APP/Src/modbus_asc.c:0:5
	add	r0, sp, #20
	.loc	2 243 15                @ ../APP/Src/modbus_asc.c:243:15
	ldrh	r0, [r0]
	.loc	2 243 29                @ ../APP/Src/modbus_asc.c:243:29
	cmp	r0, #0
	beq	.LBB5_11
	b	.LBB5_9
.LBB5_9:
	.loc	2 0 29                  @ ../APP/Src/modbus_asc.c:0:29
	add	r0, sp, #20
	.loc	2 243 39                @ ../APP/Src/modbus_asc.c:243:39
	ldrh	r0, [r0]
	.loc	2 243 61                @ ../APP/Src/modbus_asc.c:243:61
	lsls	r0, r0, #31
	cmp	r0, #0
	bne	.LBB5_11
	b	.LBB5_10
.LBB5_10:
	.loc	2 0 61                  @ ../APP/Src/modbus_asc.c:0:61
	add	r0, sp, #32
	.loc	2 243 71                @ ../APP/Src/modbus_asc.c:243:71
	ldrb	r0, [r0]
.Ltmp37:
	.loc	2 237 8 is_stmt 1       @ ../APP/Src/modbus_asc.c:237:8
	lsls	r0, r0, #31
	cmp	r0, #0
	beq	.LBB5_12
	b	.LBB5_11
.LBB5_11:
	.loc	2 0 8 is_stmt 0         @ ../APP/Src/modbus_asc.c:0:8
	movs	r0, #2
.Ltmp38:
	.loc	2 245 9 is_stmt 1       @ ../APP/Src/modbus_asc.c:245:9
	bl	MBASC_SendErr
	.loc	2 246 9                 @ ../APP/Src/modbus_asc.c:246:9
	b	.LBB5_52
.Ltmp39:
.LBB5_12:
	.loc	2 0 9 is_stmt 0         @ ../APP/Src/modbus_asc.c:0:9
	add	r0, sp, #12
	movs	r1, #0
.Ltmp40:
	.loc	2 250 18 is_stmt 1      @ ../APP/Src/modbus_asc.c:250:18
	strb	r1, [r0]
	.loc	2 250 10 is_stmt 0      @ ../APP/Src/modbus_asc.c:250:10
	b	.LBB5_13
.LBB5_13:                               @ =>This Loop Header: Depth=1
                                        @     Child Loop BB5_46 Depth 2
	.loc	2 0 10                  @ ../APP/Src/modbus_asc.c:0:10
	add	r0, sp, #12
.Ltmp41:
	.loc	2 250 25                @ ../APP/Src/modbus_asc.c:250:25
	ldrb	r0, [r0]
	add	r1, sp, #20
	.loc	2 250 29                @ ../APP/Src/modbus_asc.c:250:29
	ldrh	r1, [r1]
.Ltmp42:
	.loc	2 250 5                 @ ../APP/Src/modbus_asc.c:250:5
	cmp	r0, r1
	blt	.LBB5_14
	b	.LBB5_51
.LBB5_14:                               @   in Loop: Header=BB5_13 Depth=1
	.loc	2 0 5                   @ ../APP/Src/modbus_asc.c:0:5
	add	r0, sp, #32
.Ltmp43:
	.loc	2 252 17 is_stmt 1      @ ../APP/Src/modbus_asc.c:252:17
	ldrb	r0, [r0]
	.loc	2 252 9 is_stmt 0       @ ../APP/Src/modbus_asc.c:252:9
	cmp	r0, #0
	str	r0, [sp]                @ 4-byte Spill
	beq	.LBB5_17
	b	.LBB5_15
.LBB5_15:                               @   in Loop: Header=BB5_13 Depth=1
	ldr	r0, [sp]                @ 4-byte Reload
	cmp	r0, #2
	beq	.LBB5_26
	b	.LBB5_16
.LBB5_16:                               @   in Loop: Header=BB5_13 Depth=1
	ldr	r0, [sp]                @ 4-byte Reload
	cmp	r0, #4
	beq	.LBB5_35
	b	.LBB5_44
.LBB5_17:                               @   in Loop: Header=BB5_13 Depth=1
	.loc	2 0 9                   @ ../APP/Src/modbus_asc.c:0:9
	add	r0, sp, #16
.Ltmp44:
	.loc	2 255 16 is_stmt 1      @ ../APP/Src/modbus_asc.c:255:16
	ldrb	r0, [r0]
	.loc	2 255 33 is_stmt 0      @ ../APP/Src/modbus_asc.c:255:33
	cmp	r0, #33
	blt	.LBB5_20
	b	.LBB5_18
.LBB5_18:                               @   in Loop: Header=BB5_13 Depth=1
	.loc	2 0 33                  @ ../APP/Src/modbus_asc.c:0:33
	add	r0, sp, #16
	.loc	2 255 36                @ ../APP/Src/modbus_asc.c:255:36
	ldrb	r0, [r0]
.Ltmp45:
	.loc	2 255 16                @ ../APP/Src/modbus_asc.c:255:16
	cmp	r0, #37
	bgt	.LBB5_20
	b	.LBB5_19
.LBB5_19:                               @   in Loop: Header=BB5_13 Depth=1
.Ltmp46:
	.loc	2 258 38 is_stmt 1      @ ../APP/Src/modbus_asc.c:258:38
	ldr	r0, __arm_cp.5_10
	ldrh	r0, [r0]
	.loc	2 258 26 is_stmt 0      @ ../APP/Src/modbus_asc.c:258:26
	str	r0, [sp, #24]
	.loc	2 260 13 is_stmt 1      @ ../APP/Src/modbus_asc.c:260:13
	b	.LBB5_25
.Ltmp47:
.LBB5_20:                               @   in Loop: Header=BB5_13 Depth=1
	.loc	2 0 13 is_stmt 0        @ ../APP/Src/modbus_asc.c:0:13
	add	r0, sp, #16
.Ltmp48:
	.loc	2 261 21 is_stmt 1      @ ../APP/Src/modbus_asc.c:261:21
	ldrb	r0, [r0]
	.loc	2 261 38 is_stmt 0      @ ../APP/Src/modbus_asc.c:261:38
	cmp	r0, #38
	blt	.LBB5_23
	b	.LBB5_21
.LBB5_21:                               @   in Loop: Header=BB5_13 Depth=1
	.loc	2 0 38                  @ ../APP/Src/modbus_asc.c:0:38
	add	r0, sp, #16
	.loc	2 261 41                @ ../APP/Src/modbus_asc.c:261:41
	ldrb	r0, [r0]
.Ltmp49:
	.loc	2 261 21                @ ../APP/Src/modbus_asc.c:261:21
	cmp	r0, #41
	bgt	.LBB5_23
	b	.LBB5_22
.LBB5_22:                               @   in Loop: Header=BB5_13 Depth=1
.Ltmp50:
	.loc	2 264 38 is_stmt 1      @ ../APP/Src/modbus_asc.c:264:38
	ldr	r0, __arm_cp.5_10
	ldrh	r0, [r0, #2]
	.loc	2 264 26 is_stmt 0      @ ../APP/Src/modbus_asc.c:264:26
	str	r0, [sp, #24]
	.loc	2 265 13 is_stmt 1      @ ../APP/Src/modbus_asc.c:265:13
	b	.LBB5_24
.Ltmp51:
.LBB5_23:                               @   in Loop: Header=BB5_13 Depth=1
	.loc	2 0 13 is_stmt 0        @ ../APP/Src/modbus_asc.c:0:13
	movs	r0, #0
	.loc	2 267 26 is_stmt 1      @ ../APP/Src/modbus_asc.c:267:26
	str	r0, [sp, #24]
	b	.LBB5_24
.Ltmp52:
.LBB5_24:                               @   in Loop: Header=BB5_13 Depth=1
	.loc	2 0 26 is_stmt 0        @ ../APP/Src/modbus_asc.c:0:26
	b	.LBB5_25
.LBB5_25:                               @   in Loop: Header=BB5_13 Depth=1
	.loc	2 269 13 is_stmt 1      @ ../APP/Src/modbus_asc.c:269:13
	b	.LBB5_45
.LBB5_26:                               @   in Loop: Header=BB5_13 Depth=1
	.loc	2 0 13 is_stmt 0        @ ../APP/Src/modbus_asc.c:0:13
	add	r0, sp, #16
.Ltmp53:
	.loc	2 272 16 is_stmt 1      @ ../APP/Src/modbus_asc.c:272:16
	ldrb	r0, [r0]
	.loc	2 272 33 is_stmt 0      @ ../APP/Src/modbus_asc.c:272:33
	cmp	r0, #33
	blt	.LBB5_29
	b	.LBB5_27
.LBB5_27:                               @   in Loop: Header=BB5_13 Depth=1
	.loc	2 0 33                  @ ../APP/Src/modbus_asc.c:0:33
	add	r0, sp, #16
	.loc	2 272 36                @ ../APP/Src/modbus_asc.c:272:36
	ldrb	r0, [r0]
.Ltmp54:
	.loc	2 272 16                @ ../APP/Src/modbus_asc.c:272:16
	cmp	r0, #37
	bgt	.LBB5_29
	b	.LBB5_28
.LBB5_28:                               @   in Loop: Header=BB5_13 Depth=1
.Ltmp55:
	.loc	2 274 26 is_stmt 1      @ ../APP/Src/modbus_asc.c:274:26
	ldr	r0, __arm_cp.5_10
	ldr	r0, [r0, #16]
	.loc	2 274 24 is_stmt 0      @ ../APP/Src/modbus_asc.c:274:24
	str	r0, [sp, #24]
	.loc	2 274 15                @ ../APP/Src/modbus_asc.c:274:15
	b	.LBB5_34
.LBB5_29:                               @   in Loop: Header=BB5_13 Depth=1
	.loc	2 0 15                  @ ../APP/Src/modbus_asc.c:0:15
	add	r0, sp, #16
.Ltmp56:
	.loc	2 275 21 is_stmt 1      @ ../APP/Src/modbus_asc.c:275:21
	ldrb	r0, [r0]
	.loc	2 275 38 is_stmt 0      @ ../APP/Src/modbus_asc.c:275:38
	cmp	r0, #38
	blt	.LBB5_32
	b	.LBB5_30
.LBB5_30:                               @   in Loop: Header=BB5_13 Depth=1
	.loc	2 0 38                  @ ../APP/Src/modbus_asc.c:0:38
	add	r0, sp, #16
	.loc	2 275 41                @ ../APP/Src/modbus_asc.c:275:41
	ldrb	r0, [r0]
.Ltmp57:
	.loc	2 275 21                @ ../APP/Src/modbus_asc.c:275:21
	cmp	r0, #41
	bgt	.LBB5_32
	b	.LBB5_31
.LBB5_31:                               @   in Loop: Header=BB5_13 Depth=1
.Ltmp58:
	.loc	2 277 28 is_stmt 1      @ ../APP/Src/modbus_asc.c:277:28
	ldr	r0, __arm_cp.5_10
	ldr	r0, [r0, #20]
	.loc	2 277 26 is_stmt 0      @ ../APP/Src/modbus_asc.c:277:26
	str	r0, [sp, #24]
	.loc	2 277 17                @ ../APP/Src/modbus_asc.c:277:17
	b	.LBB5_33
.LBB5_32:                               @   in Loop: Header=BB5_13 Depth=1
	.loc	2 0 17                  @ ../APP/Src/modbus_asc.c:0:17
	movs	r0, #0
	.loc	2 279 26 is_stmt 1      @ ../APP/Src/modbus_asc.c:279:26
	str	r0, [sp, #24]
	b	.LBB5_33
.Ltmp59:
.LBB5_33:                               @   in Loop: Header=BB5_13 Depth=1
	.loc	2 0 26 is_stmt 0        @ ../APP/Src/modbus_asc.c:0:26
	b	.LBB5_34
.LBB5_34:                               @   in Loop: Header=BB5_13 Depth=1
	.loc	2 280 13 is_stmt 1      @ ../APP/Src/modbus_asc.c:280:13
	b	.LBB5_45
.LBB5_35:                               @   in Loop: Header=BB5_13 Depth=1
	.loc	2 0 13 is_stmt 0        @ ../APP/Src/modbus_asc.c:0:13
	add	r0, sp, #16
.Ltmp60:
	.loc	2 283 16 is_stmt 1      @ ../APP/Src/modbus_asc.c:283:16
	ldrb	r0, [r0]
	.loc	2 283 33 is_stmt 0      @ ../APP/Src/modbus_asc.c:283:33
	cmp	r0, #33
	blt	.LBB5_38
	b	.LBB5_36
.LBB5_36:                               @   in Loop: Header=BB5_13 Depth=1
	.loc	2 0 33                  @ ../APP/Src/modbus_asc.c:0:33
	add	r0, sp, #16
	.loc	2 283 36                @ ../APP/Src/modbus_asc.c:283:36
	ldrb	r0, [r0]
.Ltmp61:
	.loc	2 283 16                @ ../APP/Src/modbus_asc.c:283:16
	cmp	r0, #37
	bgt	.LBB5_38
	b	.LBB5_37
.LBB5_37:                               @   in Loop: Header=BB5_13 Depth=1
.Ltmp62:
	.loc	2 285 26 is_stmt 1      @ ../APP/Src/modbus_asc.c:285:26
	ldr	r0, __arm_cp.5_10
	ldr	r0, [r0, #28]
	.loc	2 285 24 is_stmt 0      @ ../APP/Src/modbus_asc.c:285:24
	str	r0, [sp, #24]
	.loc	2 285 15                @ ../APP/Src/modbus_asc.c:285:15
	b	.LBB5_43
.LBB5_38:                               @   in Loop: Header=BB5_13 Depth=1
	.loc	2 0 15                  @ ../APP/Src/modbus_asc.c:0:15
	add	r0, sp, #16
.Ltmp63:
	.loc	2 287 21 is_stmt 1      @ ../APP/Src/modbus_asc.c:287:21
	ldrb	r0, [r0]
	.loc	2 287 38 is_stmt 0      @ ../APP/Src/modbus_asc.c:287:38
	cmp	r0, #38
	blt	.LBB5_41
	b	.LBB5_39
.LBB5_39:                               @   in Loop: Header=BB5_13 Depth=1
	.loc	2 0 38                  @ ../APP/Src/modbus_asc.c:0:38
	add	r0, sp, #16
	.loc	2 287 41                @ ../APP/Src/modbus_asc.c:287:41
	ldrb	r0, [r0]
.Ltmp64:
	.loc	2 287 21                @ ../APP/Src/modbus_asc.c:287:21
	cmp	r0, #41
	bgt	.LBB5_41
	b	.LBB5_40
.LBB5_40:                               @   in Loop: Header=BB5_13 Depth=1
.Ltmp65:
	.loc	2 289 28 is_stmt 1      @ ../APP/Src/modbus_asc.c:289:28
	ldr	r0, __arm_cp.5_10
	ldr	r0, [r0, #32]
	.loc	2 289 26 is_stmt 0      @ ../APP/Src/modbus_asc.c:289:26
	str	r0, [sp, #24]
	.loc	2 289 17                @ ../APP/Src/modbus_asc.c:289:17
	b	.LBB5_42
.LBB5_41:                               @   in Loop: Header=BB5_13 Depth=1
	.loc	2 0 17                  @ ../APP/Src/modbus_asc.c:0:17
	movs	r0, #0
	.loc	2 291 26 is_stmt 1      @ ../APP/Src/modbus_asc.c:291:26
	str	r0, [sp, #24]
	b	.LBB5_42
.Ltmp66:
.LBB5_42:                               @   in Loop: Header=BB5_13 Depth=1
	.loc	2 0 26 is_stmt 0        @ ../APP/Src/modbus_asc.c:0:26
	b	.LBB5_43
.LBB5_43:                               @   in Loop: Header=BB5_13 Depth=1
	.loc	2 292 13 is_stmt 1      @ ../APP/Src/modbus_asc.c:292:13
	b	.LBB5_45
.LBB5_44:                               @   in Loop: Header=BB5_13 Depth=1
	.loc	2 0 13 is_stmt 0        @ ../APP/Src/modbus_asc.c:0:13
	movs	r0, #0
	.loc	2 295 22 is_stmt 1      @ ../APP/Src/modbus_asc.c:295:22
	str	r0, [sp, #24]
	.loc	2 296 13                @ ../APP/Src/modbus_asc.c:296:13
	b	.LBB5_45
.Ltmp67:
.LBB5_45:                               @   in Loop: Header=BB5_13 Depth=1
	.loc	2 0 13 is_stmt 0        @ ../APP/Src/modbus_asc.c:0:13
	add	r0, sp, #36
	movs	r1, #4
.Ltmp68:
	.loc	2 298 15 is_stmt 1      @ ../APP/Src/modbus_asc.c:298:15
	strb	r1, [r0]
	.loc	2 298 13 is_stmt 0      @ ../APP/Src/modbus_asc.c:298:13
	b	.LBB5_46
.LBB5_46:                               @   Parent Loop BB5_13 Depth=1
                                        @ =>  This Inner Loop Header: Depth=2
	.loc	2 0 13                  @ ../APP/Src/modbus_asc.c:0:13
	add	r0, sp, #36
.Ltmp69:
	.loc	2 298 20                @ ../APP/Src/modbus_asc.c:298:20
	ldrb	r0, [r0]
.Ltmp70:
	.loc	2 298 9                 @ ../APP/Src/modbus_asc.c:298:9
	cmp	r0, #1
	blt	.LBB5_49
	b	.LBB5_47
.LBB5_47:                               @   in Loop: Header=BB5_46 Depth=2
.Ltmp71:
	.loc	2 300 44 is_stmt 1      @ ../APP/Src/modbus_asc.c:300:44
	ldr	r0, [sp, #24]
	add	r1, sp, #36
	.loc	2 300 58 is_stmt 0      @ ../APP/Src/modbus_asc.c:300:58
	ldrb	r1, [r1]
	.loc	2 300 60                @ ../APP/Src/modbus_asc.c:300:60
	lsls	r1, r1, #3
	.loc	2 300 65                @ ../APP/Src/modbus_asc.c:300:65
	subs	r1, #8
	.loc	2 300 53                @ ../APP/Src/modbus_asc.c:300:53
	lsrs	r0, r1
	.loc	2 300 28                @ ../APP/Src/modbus_asc.c:300:28
	ldr	r1, __arm_cp.5_1
	ldrb	r2, [r1]
	adds	r3, r2, #1
	strb	r3, [r1]
	.loc	2 300 13                @ ../APP/Src/modbus_asc.c:300:13
	ldr	r1, __arm_cp.5_2
	.loc	2 300 32                @ ../APP/Src/modbus_asc.c:300:32
	strb	r0, [r1, r2]
	.loc	2 301 9 is_stmt 1       @ ../APP/Src/modbus_asc.c:301:9
	b	.LBB5_48
.Ltmp72:
.LBB5_48:                               @   in Loop: Header=BB5_46 Depth=2
	.loc	2 298 28                @ ../APP/Src/modbus_asc.c:298:28
	ldr	r0, [sp, #36]
	subs	r0, r0, #1
	add	r1, sp, #36
	strb	r0, [r1]
	.loc	2 298 9 is_stmt 0       @ ../APP/Src/modbus_asc.c:298:9
	b	.LBB5_46
.Ltmp73:
.LBB5_49:                               @   in Loop: Header=BB5_13 Depth=1
	.loc	2 302 5 is_stmt 1       @ ../APP/Src/modbus_asc.c:302:5
	b	.LBB5_50
.Ltmp74:
.LBB5_50:                               @   in Loop: Header=BB5_13 Depth=1
	.loc	2 250 53                @ ../APP/Src/modbus_asc.c:250:53
	ldr	r0, [sp, #32]
	adds	r0, r0, #2
	add	r1, sp, #32
	strb	r0, [r1]
	.loc	2 250 61 is_stmt 0      @ ../APP/Src/modbus_asc.c:250:61
	ldr	r0, [sp, #12]
	adds	r0, r0, #2
	add	r1, sp, #12
	strb	r0, [r1]
	.loc	2 250 5                 @ ../APP/Src/modbus_asc.c:250:5
	b	.LBB5_13
.Ltmp75:
.LBB5_51:
	.loc	2 305 36 is_stmt 1      @ ../APP/Src/modbus_asc.c:305:36
	ldr	r0, __arm_cp.5_1
	ldrb	r1, [r0]
	.loc	2 305 5 is_stmt 0       @ ../APP/Src/modbus_asc.c:305:5
	ldr	r0, __arm_cp.5_2
	bl	MBASC_SendMsg_NoLimit
	.loc	2 306 1 is_stmt 1       @ ../APP/Src/modbus_asc.c:306:1
	b	.LBB5_52
.LBB5_52:
	add	sp, #40
	pop	{r4, r5, r7, pc}
.Ltmp76:
	.p2align	2
@ %bb.53:
	.loc	2 0 1 is_stmt 0         @ ../APP/Src/modbus_asc.c:0:1
__arm_cp.5_0:
	.long	UARTx_RXBuff
.Lcpi_end7:
	.size	__arm_cp.5_0, .Lcpi_end7-__arm_cp.5_0
__arm_cp.5_1:
	.long	SendLen
.Lcpi_end8:
	.size	__arm_cp.5_1, .Lcpi_end8-__arm_cp.5_1
__arm_cp.5_2:
	.long	SendBuf
.Lcpi_end9:
	.size	__arm_cp.5_2, .Lcpi_end9-__arm_cp.5_2
__arm_cp.5_3:
	.long	17678                   @ 0x450e
.Lcpi_end10:
	.size	__arm_cp.5_3, .Lcpi_end10-__arm_cp.5_3
__arm_cp.5_4:
	.long	17681                   @ 0x4511
.Lcpi_end11:
	.size	__arm_cp.5_4, .Lcpi_end11-__arm_cp.5_4
__arm_cp.5_5:
	.long	17728                   @ 0x4540
.Lcpi_end12:
	.size	__arm_cp.5_5, .Lcpi_end12-__arm_cp.5_5
__arm_cp.5_6:
	.long	17730                   @ 0x4542
.Lcpi_end13:
	.size	__arm_cp.5_6, .Lcpi_end13-__arm_cp.5_6
__arm_cp.5_7:
	.long	17733                   @ 0x4545
.Lcpi_end14:
	.size	__arm_cp.5_7, .Lcpi_end14-__arm_cp.5_7
__arm_cp.5_8:
	.long	17804                   @ 0x458c
.Lcpi_end15:
	.size	__arm_cp.5_8, .Lcpi_end15-__arm_cp.5_8
__arm_cp.5_9:
	.long	17806                   @ 0x458e
.Lcpi_end16:
	.size	__arm_cp.5_9, .Lcpi_end16-__arm_cp.5_9
__arm_cp.5_10:
	.long	T_H
.Lcpi_end17:
	.size	__arm_cp.5_10, .Lcpi_end17-__arm_cp.5_10
.Lfunc_end5:
	.size	MBASC_Fun04, .Lfunc_end5-MBASC_Fun04
	.cfi_endproc
	.cantunwind
	.fnend
                                        @ -- End function
	.section	.text.MBASC_Fun10,"ax",%progbits
	.hidden	MBASC_Fun10             @ -- Begin function MBASC_Fun10
	.globl	MBASC_Fun10
	.p2align	2
	.type	MBASC_Fun10,%function
	.code	16                      @ @MBASC_Fun10
	.thumb_func
MBASC_Fun10:
.Lfunc_begin6:
	.loc	2 325 0 is_stmt 1       @ ../APP/Src/modbus_asc.c:325:0
	.fnstart
	.cfi_startproc
@ %bb.0:
	.save	{r4, r5, r7, lr}
	push	{r4, r5, r7, lr}
	.cfi_def_cfa_offset 16
	.cfi_offset lr, -4
	.cfi_offset r7, -8
	.cfi_offset r5, -12
	.cfi_offset r4, -16
	.pad	#48
	sub	sp, #48
	.cfi_def_cfa_offset 64
	movs	r0, #0
.Ltmp77:
	.loc	2 326 14 prologue_end   @ ../APP/Src/modbus_asc.c:326:14
	str	r0, [sp, #44]
	add	r1, sp, #40
	.loc	2 327 14                @ ../APP/Src/modbus_asc.c:327:14
	strh	r0, [r1]
	.loc	2 334 16                @ ../APP/Src/modbus_asc.c:334:16
	ldr	r2, __arm_cp.6_0
	ldrb	r3, [r2, #2]
	add	r4, sp, #36
	.loc	2 334 14 is_stmt 0      @ ../APP/Src/modbus_asc.c:334:14
	strb	r3, [r4]
	.loc	2 335 16 is_stmt 1      @ ../APP/Src/modbus_asc.c:335:16
	ldrb	r3, [r2, #3]
	add	r4, sp, #32
	.loc	2 335 14 is_stmt 0      @ ../APP/Src/modbus_asc.c:335:14
	strb	r3, [r4]
	.loc	2 337 21 is_stmt 1      @ ../APP/Src/modbus_asc.c:337:21
	ldrb	r3, [r2, #4]
	.loc	2 337 47 is_stmt 0      @ ../APP/Src/modbus_asc.c:337:47
	lsls	r3, r3, #8
	.loc	2 337 55                @ ../APP/Src/modbus_asc.c:337:55
	ldrb	r5, [r2, #5]
	.loc	2 337 53                @ ../APP/Src/modbus_asc.c:337:53
	adds	r3, r3, r5
	.loc	2 337 18                @ ../APP/Src/modbus_asc.c:337:18
	strh	r3, [r1]
	.loc	2 339 13 is_stmt 1      @ ../APP/Src/modbus_asc.c:339:13
	ldr	r1, __arm_cp.6_1
	strb	r0, [r1]
	.loc	2 341 26                @ ../APP/Src/modbus_asc.c:341:26
	mov	r0, r2
	str	r4, [sp, #16]           @ 4-byte Spill
	str	r1, [sp, #12]           @ 4-byte Spill
	bl	MBASC_GetSlaveAddr
	.loc	2 341 20 is_stmt 0      @ ../APP/Src/modbus_asc.c:341:20
	ldr	r1, [sp, #12]           @ 4-byte Reload
	ldrb	r2, [r1]
	adds	r3, r2, #1
	strb	r3, [r1]
	.loc	2 341 5                 @ ../APP/Src/modbus_asc.c:341:5
	ldr	r3, __arm_cp.6_2
	.loc	2 341 24                @ ../APP/Src/modbus_asc.c:341:24
	strb	r0, [r3, r2]
	.loc	2 342 17 is_stmt 1      @ ../APP/Src/modbus_asc.c:342:17
	ldrb	r0, [r1]
	adds	r2, r0, #1
	strb	r2, [r1]
	movs	r2, #16
	.loc	2 342 21 is_stmt 0      @ ../APP/Src/modbus_asc.c:342:21
	strb	r2, [r3, r0]
	.loc	2 343 26 is_stmt 1      @ ../APP/Src/modbus_asc.c:343:26
	ldr	r0, [sp, #40]
	.loc	2 343 39 is_stmt 0      @ ../APP/Src/modbus_asc.c:343:39
	lsls	r0, r0, #1
	.loc	2 343 20                @ ../APP/Src/modbus_asc.c:343:20
	ldrb	r2, [r1]
	adds	r4, r2, #1
	strb	r4, [r1]
	.loc	2 343 24                @ ../APP/Src/modbus_asc.c:343:24
	strb	r0, [r3, r2]
.Ltmp78:
	.loc	2 345 15 is_stmt 1      @ ../APP/Src/modbus_asc.c:345:15
	ldr	r0, [sp, #16]           @ 4-byte Reload
	ldrb	r2, [r0]
	.loc	2 345 55 is_stmt 0      @ ../APP/Src/modbus_asc.c:345:55
	cmp	r2, #48
	blt	.LBB6_3
	b	.LBB6_1
.LBB6_1:
	.loc	2 0 55                  @ ../APP/Src/modbus_asc.c:0:55
	add	r0, sp, #32
	.loc	2 345 59                @ ../APP/Src/modbus_asc.c:345:59
	ldrb	r0, [r0]
	.loc	2 346 13 is_stmt 1      @ ../APP/Src/modbus_asc.c:346:13
	cmp	r0, #79
	bgt	.LBB6_3
	b	.LBB6_2
.LBB6_2:
	.loc	2 0 13 is_stmt 0        @ ../APP/Src/modbus_asc.c:0:13
	add	r0, sp, #32
	.loc	2 346 17                @ ../APP/Src/modbus_asc.c:346:17
	ldrb	r0, [r0]
	add	r1, sp, #40
	.loc	2 346 28                @ ../APP/Src/modbus_asc.c:346:28
	ldrh	r1, [r1]
	.loc	2 346 26                @ ../APP/Src/modbus_asc.c:346:26
	adds	r0, r0, r1
	.loc	2 347 13 is_stmt 1      @ ../APP/Src/modbus_asc.c:347:13
	cmp	r0, #81
	blt	.LBB6_4
	b	.LBB6_3
.LBB6_3:
	.loc	2 0 13 is_stmt 0        @ ../APP/Src/modbus_asc.c:0:13
	add	r0, sp, #32
	.loc	2 347 17                @ ../APP/Src/modbus_asc.c:347:17
	ldrb	r0, [r0]
	.loc	2 348 13 is_stmt 1      @ ../APP/Src/modbus_asc.c:348:13
	cmp	r0, #112
	bne	.LBB6_9
	b	.LBB6_4
.LBB6_4:
	.loc	2 0 13 is_stmt 0        @ ../APP/Src/modbus_asc.c:0:13
	add	r0, sp, #40
	.loc	2 348 23                @ ../APP/Src/modbus_asc.c:348:23
	ldrh	r0, [r0]
	.loc	2 348 38                @ ../APP/Src/modbus_asc.c:348:38
	cmp	r0, #0
	beq	.LBB6_9
	b	.LBB6_5
.LBB6_5:
	.loc	2 0 38                  @ ../APP/Src/modbus_asc.c:0:38
	add	r0, sp, #40
	.loc	2 348 43                @ ../APP/Src/modbus_asc.c:348:43
	ldrh	r0, [r0]
	.loc	2 348 56                @ ../APP/Src/modbus_asc.c:348:56
	lsls	r0, r0, #1
	.loc	2 348 64                @ ../APP/Src/modbus_asc.c:348:64
	ldr	r1, __arm_cp.6_0
	ldrb	r1, [r1, #6]
	.loc	2 349 13 is_stmt 1      @ ../APP/Src/modbus_asc.c:349:13
	cmp	r1, r0
	bne	.LBB6_9
	b	.LBB6_6
.LBB6_6:
	.loc	2 0 13 is_stmt 0        @ ../APP/Src/modbus_asc.c:0:13
	add	r0, sp, #36
	.loc	2 349 19                @ ../APP/Src/modbus_asc.c:349:19
	ldrb	r0, [r0]
	.loc	2 349 40                @ ../APP/Src/modbus_asc.c:349:40
	ldr	r1, __arm_cp.6_3
	ldrb	r1, [r1]
	.loc	2 349 56                @ ../APP/Src/modbus_asc.c:349:56
	cmp	r0, r1
	beq	.LBB6_10
	b	.LBB6_7
.LBB6_7:
	.loc	2 0 56                  @ ../APP/Src/modbus_asc.c:0:56
	add	r0, sp, #36
	.loc	2 349 60                @ ../APP/Src/modbus_asc.c:349:60
	ldrb	r0, [r0]
	.loc	2 349 81                @ ../APP/Src/modbus_asc.c:349:81
	ldr	r1, __arm_cp.6_3
	ldrb	r1, [r1, #1]
	.loc	2 349 99                @ ../APP/Src/modbus_asc.c:349:99
	cmp	r0, r1
	beq	.LBB6_10
	b	.LBB6_8
.LBB6_8:
	.loc	2 0 99                  @ ../APP/Src/modbus_asc.c:0:99
	add	r0, sp, #36
	.loc	2 349 103               @ ../APP/Src/modbus_asc.c:349:103
	ldrb	r0, [r0]
.Ltmp79:
	.loc	2 345 9 is_stmt 1       @ ../APP/Src/modbus_asc.c:345:9
	cmp	r0, #0
	beq	.LBB6_10
	b	.LBB6_9
.LBB6_9:
	.loc	2 0 9 is_stmt 0         @ ../APP/Src/modbus_asc.c:0:9
	movs	r0, #2
.Ltmp80:
	.loc	2 351 9 is_stmt 1       @ ../APP/Src/modbus_asc.c:351:9
	bl	MBASC_SendErr
	.loc	2 352 9                 @ ../APP/Src/modbus_asc.c:352:9
	b	.LBB6_59
.Ltmp81:
.LBB6_10:
	.loc	2 0 9 is_stmt 0         @ ../APP/Src/modbus_asc.c:0:9
	add	r0, sp, #20
	movs	r1, #0
.Ltmp82:
	.loc	2 355 18 is_stmt 1      @ ../APP/Src/modbus_asc.c:355:18
	strb	r1, [r0]
	.loc	2 355 10 is_stmt 0      @ ../APP/Src/modbus_asc.c:355:10
	b	.LBB6_11
.LBB6_11:                               @ =>This Inner Loop Header: Depth=1
	.loc	2 0 10                  @ ../APP/Src/modbus_asc.c:0:10
	add	r0, sp, #20
.Ltmp83:
	.loc	2 355 25                @ ../APP/Src/modbus_asc.c:355:25
	ldrb	r0, [r0]
	add	r1, sp, #40
	.loc	2 355 29                @ ../APP/Src/modbus_asc.c:355:29
	ldrh	r1, [r1]
.Ltmp84:
	.loc	2 355 5                 @ ../APP/Src/modbus_asc.c:355:5
	cmp	r0, r1
	blt	.LBB6_12
	b	.LBB6_58
.LBB6_12:                               @   in Loop: Header=BB6_11 Depth=1
	.loc	2 0 5                   @ ../APP/Src/modbus_asc.c:0:5
	add	r0, sp, #32
.Ltmp85:
	.loc	2 357 17 is_stmt 1      @ ../APP/Src/modbus_asc.c:357:17
	ldrb	r0, [r0]
	.loc	2 357 9 is_stmt 0       @ ../APP/Src/modbus_asc.c:357:9
	subs	r0, #48
	cmp	r0, #64
	str	r0, [sp, #8]            @ 4-byte Spill
	bls	.LBB6_13
	b	.LBB6_55
.LBB6_13:                               @   in Loop: Header=BB6_11 Depth=1
	.loc	2 0 9                   @ ../APP/Src/modbus_asc.c:0:9
	ldr	r0, [sp, #8]            @ 4-byte Reload
	lsls	r1, r0, #2
	adr	r2, .LJTI6_0
	adds	r1, r2, r1
	mov	pc, r1
@ %bb.14:
	.p2align	2
.LJTI6_0:
	b.w	.LBB6_15
	b.w	.LBB6_23
	b.w	.LBB6_24
	b.w	.LBB6_25
	b.w	.LBB6_26
	b.w	.LBB6_27
	b.w	.LBB6_28
	b.w	.LBB6_29
	b.w	.LBB6_30
	b.w	.LBB6_31
	b.w	.LBB6_32
	b.w	.LBB6_33
	b.w	.LBB6_34
	b.w	.LBB6_35
	b.w	.LBB6_36
	b.w	.LBB6_37
	b.w	.LBB6_38
	b.w	.LBB6_39
	b.w	.LBB6_40
	b.w	.LBB6_41
	b.w	.LBB6_42
	b.w	.LBB6_43
	b.w	.LBB6_44
	b.w	.LBB6_45
	b.w	.LBB6_46
	b.w	.LBB6_47
	b.w	.LBB6_48
	b.w	.LBB6_49
	b.w	.LBB6_50
	b.w	.LBB6_51
	b.w	.LBB6_52
	b.w	.LBB6_53
	b.w	.LBB6_55
	b.w	.LBB6_55
	b.w	.LBB6_55
	b.w	.LBB6_55
	b.w	.LBB6_55
	b.w	.LBB6_55
	b.w	.LBB6_55
	b.w	.LBB6_55
	b.w	.LBB6_55
	b.w	.LBB6_55
	b.w	.LBB6_55
	b.w	.LBB6_55
	b.w	.LBB6_55
	b.w	.LBB6_55
	b.w	.LBB6_55
	b.w	.LBB6_55
	b.w	.LBB6_55
	b.w	.LBB6_55
	b.w	.LBB6_55
	b.w	.LBB6_55
	b.w	.LBB6_55
	b.w	.LBB6_55
	b.w	.LBB6_55
	b.w	.LBB6_55
	b.w	.LBB6_55
	b.w	.LBB6_55
	b.w	.LBB6_55
	b.w	.LBB6_55
	b.w	.LBB6_55
	b.w	.LBB6_55
	b.w	.LBB6_55
	b.w	.LBB6_55
	b.w	.LBB6_54
.LBB6_15:                               @   in Loop: Header=BB6_11 Depth=1
.Ltmp86:
	.loc	2 366 44 is_stmt 1      @ ../APP/Src/modbus_asc.c:366:44
	ldr	r0, [sp, #44]
	.loc	2 366 29 is_stmt 0      @ ../APP/Src/modbus_asc.c:366:29
	ldr	r1, __arm_cp.6_0
	.loc	2 366 43                @ ../APP/Src/modbus_asc.c:366:43
	adds	r0, r0, r1
	.loc	2 366 19                @ ../APP/Src/modbus_asc.c:366:19
	ldrb	r1, [r0, #7]
	.loc	2 366 51                @ ../APP/Src/modbus_asc.c:366:51
	lsls	r1, r1, #8
	.loc	2 366 59                @ ../APP/Src/modbus_asc.c:366:59
	ldrb	r0, [r0, #8]
	.loc	2 366 57                @ ../APP/Src/modbus_asc.c:366:57
	adds	r0, r1, r0
	add	r1, sp, #28
	.loc	2 366 16                @ ../APP/Src/modbus_asc.c:366:16
	strh	r0, [r1]
.Ltmp87:
	.loc	2 367 20 is_stmt 1      @ ../APP/Src/modbus_asc.c:367:20
	ldrh	r0, [r1]
	.loc	2 367 39 is_stmt 0      @ ../APP/Src/modbus_asc.c:367:39
	cmp	r0, #33
	blt	.LBB6_18
	b	.LBB6_16
.LBB6_16:                               @   in Loop: Header=BB6_11 Depth=1
	.loc	2 0 39                  @ ../APP/Src/modbus_asc.c:0:39
	add	r0, sp, #28
	.loc	2 367 42                @ ../APP/Src/modbus_asc.c:367:42
	ldrh	r0, [r0]
.Ltmp88:
	.loc	2 367 20                @ ../APP/Src/modbus_asc.c:367:20
	cmp	r0, #37
	bgt	.LBB6_18
	b	.LBB6_17
.LBB6_17:                               @   in Loop: Header=BB6_11 Depth=1
.Ltmp89:
	.loc	2 369 47 is_stmt 1      @ ../APP/Src/modbus_asc.c:369:47
	ldr	r0, [sp, #28]
	.loc	2 369 45 is_stmt 0      @ ../APP/Src/modbus_asc.c:369:45
	ldr	r1, __arm_cp.6_3
	strb	r0, [r1]
	movs	r0, #2
	movs	r2, #1
	.loc	2 370 6 is_stmt 1       @ ../APP/Src/modbus_asc.c:370:6
	bl	Flash_Write_MultiBytes
	.loc	2 371 17                @ ../APP/Src/modbus_asc.c:371:17
	b	.LBB6_22
.Ltmp90:
.LBB6_18:                               @   in Loop: Header=BB6_11 Depth=1
	.loc	2 0 17 is_stmt 0        @ ../APP/Src/modbus_asc.c:0:17
	add	r0, sp, #28
.Ltmp91:
	.loc	2 372 25 is_stmt 1      @ ../APP/Src/modbus_asc.c:372:25
	ldrh	r0, [r0]
	.loc	2 372 44 is_stmt 0      @ ../APP/Src/modbus_asc.c:372:44
	cmp	r0, #38
	blt	.LBB6_21
	b	.LBB6_19
.LBB6_19:                               @   in Loop: Header=BB6_11 Depth=1
	.loc	2 0 44                  @ ../APP/Src/modbus_asc.c:0:44
	add	r0, sp, #28
	.loc	2 372 47                @ ../APP/Src/modbus_asc.c:372:47
	ldrh	r0, [r0]
.Ltmp92:
	.loc	2 372 25                @ ../APP/Src/modbus_asc.c:372:25
	cmp	r0, #41
	bgt	.LBB6_21
	b	.LBB6_20
.LBB6_20:                               @   in Loop: Header=BB6_11 Depth=1
.Ltmp93:
	.loc	2 374 47 is_stmt 1      @ ../APP/Src/modbus_asc.c:374:47
	ldr	r0, [sp, #28]
	.loc	2 374 45 is_stmt 0      @ ../APP/Src/modbus_asc.c:374:45
	ldr	r1, __arm_cp.6_3
	strb	r0, [r1, #1]
	adds	r1, r1, #1
	movs	r0, #3
	movs	r2, #1
	.loc	2 375 6 is_stmt 1       @ ../APP/Src/modbus_asc.c:375:6
	bl	Flash_Write_MultiBytes
	.loc	2 376 17                @ ../APP/Src/modbus_asc.c:376:17
	b	.LBB6_21
.Ltmp94:
.LBB6_21:                               @   in Loop: Header=BB6_11 Depth=1
	.loc	2 0 17 is_stmt 0        @ ../APP/Src/modbus_asc.c:0:17
	b	.LBB6_22
.LBB6_22:                               @   in Loop: Header=BB6_11 Depth=1
	.loc	2 377 17 is_stmt 1      @ ../APP/Src/modbus_asc.c:377:17
	b	.LBB6_56
.LBB6_23:                               @   in Loop: Header=BB6_11 Depth=1
	.loc	2 380 51                @ ../APP/Src/modbus_asc.c:380:51
	ldr	r0, [sp, #44]
	.loc	2 380 36 is_stmt 0      @ ../APP/Src/modbus_asc.c:380:36
	ldr	r1, __arm_cp.6_0
	.loc	2 380 80                @ ../APP/Src/modbus_asc.c:380:80
	adds	r0, r0, r1
	.loc	2 380 66                @ ../APP/Src/modbus_asc.c:380:66
	ldrb	r0, [r0, #8]
	.loc	2 380 23                @ ../APP/Src/modbus_asc.c:380:23
	ldr	r1, __arm_cp.6_3
	strb	r0, [r1, #2]
	adds	r1, r1, #2
	movs	r0, #4
	movs	r2, #1
	.loc	2 382 17 is_stmt 1      @ ../APP/Src/modbus_asc.c:382:17
	bl	Flash_Write_MultiBytes
	.loc	2 384 17                @ ../APP/Src/modbus_asc.c:384:17
	b	.LBB6_56
.LBB6_24:                               @   in Loop: Header=BB6_11 Depth=1
	.loc	2 387 17                @ ../APP/Src/modbus_asc.c:387:17
	b	.LBB6_56
.LBB6_25:                               @   in Loop: Header=BB6_11 Depth=1
	.loc	2 390 17                @ ../APP/Src/modbus_asc.c:390:17
	b	.LBB6_56
.LBB6_26:                               @   in Loop: Header=BB6_11 Depth=1
	.loc	2 393 17                @ ../APP/Src/modbus_asc.c:393:17
	b	.LBB6_56
.LBB6_27:                               @   in Loop: Header=BB6_11 Depth=1
	.loc	2 396 17                @ ../APP/Src/modbus_asc.c:396:17
	b	.LBB6_56
.LBB6_28:                               @   in Loop: Header=BB6_11 Depth=1
	.loc	2 399 48                @ ../APP/Src/modbus_asc.c:399:48
	ldr	r0, [sp, #44]
	.loc	2 399 33 is_stmt 0      @ ../APP/Src/modbus_asc.c:399:33
	ldr	r1, __arm_cp.6_0
	.loc	2 399 47                @ ../APP/Src/modbus_asc.c:399:47
	adds	r0, r0, r1
	.loc	2 399 23                @ ../APP/Src/modbus_asc.c:399:23
	ldrb	r1, [r0, #7]
	.loc	2 399 55                @ ../APP/Src/modbus_asc.c:399:55
	lsls	r1, r1, #8
	.loc	2 399 63                @ ../APP/Src/modbus_asc.c:399:63
	ldrb	r0, [r0, #8]
	.loc	2 399 61                @ ../APP/Src/modbus_asc.c:399:61
	adds	r0, r1, r0
	add	r1, sp, #24
	.loc	2 399 20                @ ../APP/Src/modbus_asc.c:399:20
	strh	r0, [r1]
	.loc	2 404 51 is_stmt 1      @ ../APP/Src/modbus_asc.c:404:51
	ldr	r0, [sp, #24]
	.loc	2 404 40 is_stmt 0      @ ../APP/Src/modbus_asc.c:404:40
	ldr	r1, __arm_cp.6_4
	ldrb	r2, [r1, #26]
	.loc	2 404 17                @ ../APP/Src/modbus_asc.c:404:17
	mov	r3, r1
	adds	r3, #24
	.loc	2 404 49                @ ../APP/Src/modbus_asc.c:404:49
	strb	r0, [r3, r2]
	.loc	2 405 65 is_stmt 1      @ ../APP/Src/modbus_asc.c:405:65
	ldrb	r0, [r1, #26]
	.loc	2 405 59 is_stmt 0      @ ../APP/Src/modbus_asc.c:405:59
	mov	r1, r0
	adds	r1, #17
	.loc	2 405 75                @ ../APP/Src/modbus_asc.c:405:75
	adds	r0, r3, r0
	movs	r2, #1
	.loc	2 405 17                @ ../APP/Src/modbus_asc.c:405:17
	str	r0, [sp, #4]            @ 4-byte Spill
	mov	r0, r1
	ldr	r1, [sp, #4]            @ 4-byte Reload
	bl	Flash_Write_MultiBytes
	.loc	2 406 17 is_stmt 1      @ ../APP/Src/modbus_asc.c:406:17
	b	.LBB6_56
.LBB6_29:                               @   in Loop: Header=BB6_11 Depth=1
	.loc	2 409 17                @ ../APP/Src/modbus_asc.c:409:17
	b	.LBB6_56
.LBB6_30:                               @   in Loop: Header=BB6_11 Depth=1
	.loc	2 412 17                @ ../APP/Src/modbus_asc.c:412:17
	b	.LBB6_56
.LBB6_31:                               @   in Loop: Header=BB6_11 Depth=1
	.loc	2 415 17                @ ../APP/Src/modbus_asc.c:415:17
	b	.LBB6_56
.LBB6_32:                               @   in Loop: Header=BB6_11 Depth=1
	.loc	2 418 17                @ ../APP/Src/modbus_asc.c:418:17
	b	.LBB6_56
.LBB6_33:                               @   in Loop: Header=BB6_11 Depth=1
	.loc	2 421 17                @ ../APP/Src/modbus_asc.c:421:17
	b	.LBB6_56
.LBB6_34:                               @   in Loop: Header=BB6_11 Depth=1
	.loc	2 424 17                @ ../APP/Src/modbus_asc.c:424:17
	b	.LBB6_56
.LBB6_35:                               @   in Loop: Header=BB6_11 Depth=1
	.loc	2 427 17                @ ../APP/Src/modbus_asc.c:427:17
	b	.LBB6_56
.LBB6_36:                               @   in Loop: Header=BB6_11 Depth=1
	.loc	2 430 17                @ ../APP/Src/modbus_asc.c:430:17
	b	.LBB6_56
.LBB6_37:                               @   in Loop: Header=BB6_11 Depth=1
	.loc	2 433 17                @ ../APP/Src/modbus_asc.c:433:17
	b	.LBB6_56
.LBB6_38:                               @   in Loop: Header=BB6_11 Depth=1
	.loc	2 436 64                @ ../APP/Src/modbus_asc.c:436:64
	ldr	r0, [sp, #44]
	.loc	2 436 49 is_stmt 0      @ ../APP/Src/modbus_asc.c:436:49
	ldr	r1, __arm_cp.6_0
	.loc	2 436 63                @ ../APP/Src/modbus_asc.c:436:63
	adds	r0, r0, r1
	.loc	2 436 39                @ ../APP/Src/modbus_asc.c:436:39
	ldrb	r1, [r0, #7]
	.loc	2 436 71                @ ../APP/Src/modbus_asc.c:436:71
	lsls	r1, r1, #8
	.loc	2 436 79                @ ../APP/Src/modbus_asc.c:436:79
	ldrb	r0, [r0, #8]
	.loc	2 436 77                @ ../APP/Src/modbus_asc.c:436:77
	adds	r0, r1, r0
	.loc	2 436 36                @ ../APP/Src/modbus_asc.c:436:36
	ldr	r1, __arm_cp.6_4
	strh	r0, [r1, #4]
	adds	r1, r1, #4
	movs	r0, #5
	movs	r2, #2
	.loc	2 437 17 is_stmt 1      @ ../APP/Src/modbus_asc.c:437:17
	bl	Flash_Write_MultiBytes
	.loc	2 438 17                @ ../APP/Src/modbus_asc.c:438:17
	b	.LBB6_56
.LBB6_39:                               @   in Loop: Header=BB6_11 Depth=1
	.loc	2 441 64                @ ../APP/Src/modbus_asc.c:441:64
	ldr	r0, [sp, #44]
	.loc	2 441 49 is_stmt 0      @ ../APP/Src/modbus_asc.c:441:49
	ldr	r1, __arm_cp.6_0
	.loc	2 441 63                @ ../APP/Src/modbus_asc.c:441:63
	adds	r0, r0, r1
	.loc	2 441 39                @ ../APP/Src/modbus_asc.c:441:39
	ldrb	r1, [r0, #7]
	.loc	2 441 71                @ ../APP/Src/modbus_asc.c:441:71
	lsls	r1, r1, #8
	.loc	2 441 79                @ ../APP/Src/modbus_asc.c:441:79
	ldrb	r0, [r0, #8]
	.loc	2 441 77                @ ../APP/Src/modbus_asc.c:441:77
	adds	r0, r1, r0
	.loc	2 441 36                @ ../APP/Src/modbus_asc.c:441:36
	ldr	r1, __arm_cp.6_4
	strh	r0, [r1, #8]
	adds	r1, #8
	movs	r0, #7
	movs	r2, #2
	.loc	2 442 17 is_stmt 1      @ ../APP/Src/modbus_asc.c:442:17
	bl	Flash_Write_MultiBytes
	.loc	2 443 17                @ ../APP/Src/modbus_asc.c:443:17
	b	.LBB6_56
.LBB6_40:                               @   in Loop: Header=BB6_11 Depth=1
	.loc	2 446 61                @ ../APP/Src/modbus_asc.c:446:61
	ldr	r0, [sp, #44]
	.loc	2 446 46 is_stmt 0      @ ../APP/Src/modbus_asc.c:446:46
	ldr	r1, __arm_cp.6_0
	.loc	2 446 60                @ ../APP/Src/modbus_asc.c:446:60
	adds	r0, r0, r1
	.loc	2 446 46                @ ../APP/Src/modbus_asc.c:446:46
	ldrb	r1, [r0, #7]
	.loc	2 446 68                @ ../APP/Src/modbus_asc.c:446:68
	lsls	r1, r1, #8
	.loc	2 446 76                @ ../APP/Src/modbus_asc.c:446:76
	ldrb	r0, [r0, #8]
	.loc	2 446 74                @ ../APP/Src/modbus_asc.c:446:74
	adds	r0, r1, r0
	.loc	2 446 33                @ ../APP/Src/modbus_asc.c:446:33
	ldr	r1, __arm_cp.6_4
	str	r0, [r1, #16]
	adds	r1, #16
	movs	r0, #9
	movs	r2, #2
	.loc	2 447 17 is_stmt 1      @ ../APP/Src/modbus_asc.c:447:17
	bl	Flash_Write_MultiBytes
	.loc	2 448 17                @ ../APP/Src/modbus_asc.c:448:17
	b	.LBB6_56
.LBB6_41:                               @   in Loop: Header=BB6_11 Depth=1
	.loc	2 451 17                @ ../APP/Src/modbus_asc.c:451:17
	b	.LBB6_56
.LBB6_42:                               @   in Loop: Header=BB6_11 Depth=1
	.loc	2 454 17                @ ../APP/Src/modbus_asc.c:454:17
	b	.LBB6_56
.LBB6_43:                               @   in Loop: Header=BB6_11 Depth=1
	.loc	2 457 17                @ ../APP/Src/modbus_asc.c:457:17
	b	.LBB6_56
.LBB6_44:                               @   in Loop: Header=BB6_11 Depth=1
	.loc	2 460 17                @ ../APP/Src/modbus_asc.c:460:17
	b	.LBB6_56
.LBB6_45:                               @   in Loop: Header=BB6_11 Depth=1
	.loc	2 463 17                @ ../APP/Src/modbus_asc.c:463:17
	b	.LBB6_56
.LBB6_46:                               @   in Loop: Header=BB6_11 Depth=1
	.loc	2 466 17                @ ../APP/Src/modbus_asc.c:466:17
	b	.LBB6_56
.LBB6_47:                               @   in Loop: Header=BB6_11 Depth=1
	.loc	2 469 17                @ ../APP/Src/modbus_asc.c:469:17
	b	.LBB6_56
.LBB6_48:                               @   in Loop: Header=BB6_11 Depth=1
	.loc	2 472 17                @ ../APP/Src/modbus_asc.c:472:17
	b	.LBB6_56
.LBB6_49:                               @   in Loop: Header=BB6_11 Depth=1
	.loc	2 475 17                @ ../APP/Src/modbus_asc.c:475:17
	b	.LBB6_56
.LBB6_50:                               @   in Loop: Header=BB6_11 Depth=1
	.loc	2 478 17                @ ../APP/Src/modbus_asc.c:478:17
	b	.LBB6_56
.LBB6_51:                               @   in Loop: Header=BB6_11 Depth=1
	.loc	2 481 17                @ ../APP/Src/modbus_asc.c:481:17
	b	.LBB6_56
.LBB6_52:                               @   in Loop: Header=BB6_11 Depth=1
	.loc	2 484 17                @ ../APP/Src/modbus_asc.c:484:17
	b	.LBB6_56
.LBB6_53:                               @   in Loop: Header=BB6_11 Depth=1
	.loc	2 487 17                @ ../APP/Src/modbus_asc.c:487:17
	b	.LBB6_56
.LBB6_54:
	.loc	2 490 5                 @ ../APP/Src/modbus_asc.c:490:5
	b	.LBB6_59
.LBB6_55:                               @   in Loop: Header=BB6_11 Depth=1
	.loc	2 494 17                @ ../APP/Src/modbus_asc.c:494:17
	b	.LBB6_56
.Ltmp95:
.LBB6_56:                               @   in Loop: Header=BB6_11 Depth=1
	.loc	2 496 15                @ ../APP/Src/modbus_asc.c:496:15
	ldr	r0, [sp, #44]
	adds	r0, r0, #2
	str	r0, [sp, #44]
	.loc	2 497 5                 @ ../APP/Src/modbus_asc.c:497:5
	b	.LBB6_57
.Ltmp96:
.LBB6_57:                               @   in Loop: Header=BB6_11 Depth=1
	.loc	2 355 51                @ ../APP/Src/modbus_asc.c:355:51
	ldr	r0, [sp, #32]
	adds	r0, r0, #1
	add	r1, sp, #32
	strb	r0, [r1]
	.loc	2 355 56 is_stmt 0      @ ../APP/Src/modbus_asc.c:355:56
	ldr	r0, [sp, #20]
	adds	r0, r0, #1
	add	r1, sp, #20
	strb	r0, [r1]
	.loc	2 355 5                 @ ../APP/Src/modbus_asc.c:355:5
	b	.LBB6_11
.Ltmp97:
.LBB6_58:
	.loc	2 499 5 is_stmt 1       @ ../APP/Src/modbus_asc.c:499:5
	ldr	r0, __arm_cp.6_0
	movs	r1, #6
	bl	MBASC_SendMsg_NoLimit
	.loc	2 500 1                 @ ../APP/Src/modbus_asc.c:500:1
	b	.LBB6_59
.LBB6_59:
	add	sp, #48
	pop	{r4, r5, r7, pc}
.Ltmp98:
	.p2align	2
@ %bb.60:
	.loc	2 0 1 is_stmt 0         @ ../APP/Src/modbus_asc.c:0:1
__arm_cp.6_0:
	.long	UARTx_RXBuff
.Lcpi_end18:
	.size	__arm_cp.6_0, .Lcpi_end18-__arm_cp.6_0
__arm_cp.6_1:
	.long	SendLen
.Lcpi_end19:
	.size	__arm_cp.6_1, .Lcpi_end19-__arm_cp.6_1
__arm_cp.6_2:
	.long	SendBuf
.Lcpi_end20:
	.size	__arm_cp.6_2, .Lcpi_end20-__arm_cp.6_2
__arm_cp.6_3:
	.long	UserPara
.Lcpi_end21:
	.size	__arm_cp.6_3, .Lcpi_end21-__arm_cp.6_3
__arm_cp.6_4:
	.long	T_H
.Lcpi_end22:
	.size	__arm_cp.6_4, .Lcpi_end22-__arm_cp.6_4
.Lfunc_end6:
	.size	MBASC_Fun10, .Lfunc_end6-MBASC_Fun10
	.cfi_endproc
	.cantunwind
	.fnend
                                        @ -- End function
	.section	.text.MBASC_Fun2B,"ax",%progbits
	.hidden	MBASC_Fun2B             @ -- Begin function MBASC_Fun2B
	.globl	MBASC_Fun2B
	.p2align	2
	.type	MBASC_Fun2B,%function
	.code	16                      @ @MBASC_Fun2B
	.thumb_func
MBASC_Fun2B:
.Lfunc_begin7:
	.loc	2 518 0 is_stmt 1       @ ../APP/Src/modbus_asc.c:518:0
	.fnstart
	.cfi_startproc
@ %bb.0:
	.save	{r4, r5, r7, lr}
	push	{r4, r5, r7, lr}
	.cfi_def_cfa_offset 16
	.cfi_offset lr, -4
	.cfi_offset r7, -8
	.cfi_offset r5, -12
	.cfi_offset r4, -16
	.pad	#40
	sub	sp, #40
	.cfi_def_cfa_offset 56
	add	r0, sp, #36
	movs	r1, #0
.Ltmp99:
	.loc	2 519 14 prologue_end   @ ../APP/Src/modbus_asc.c:519:14
	strh	r1, [r0]
	add	r0, sp, #32
	.loc	2 519 30 is_stmt 0      @ ../APP/Src/modbus_asc.c:519:30
	strh	r1, [r0]
	add	r0, sp, #28
	.loc	2 520 13 is_stmt 1      @ ../APP/Src/modbus_asc.c:520:13
	strb	r1, [r0]
	add	r0, sp, #24
	.loc	2 521 13                @ ../APP/Src/modbus_asc.c:521:13
	strb	r1, [r0]
.Ltmp100:
	.loc	2 527 14                @ ../APP/Src/modbus_asc.c:527:14
	ldr	r0, __arm_cp.7_0
	ldrb	r0, [r0, #1]
	.loc	2 527 32 is_stmt 0      @ ../APP/Src/modbus_asc.c:527:32
	ldr	r1, __arm_cp.7_1
	ldrb	r1, [r1, #2]
	.loc	2 527 48                @ ../APP/Src/modbus_asc.c:527:48
	cmp	r0, r1
	beq	.LBB7_3
	b	.LBB7_1
.LBB7_1:
	.loc	2 527 60                @ ../APP/Src/modbus_asc.c:527:60
	ldr	r0, __arm_cp.7_0
	ldrb	r0, [r0]
	.loc	2 527 78                @ ../APP/Src/modbus_asc.c:527:78
	ldr	r1, __arm_cp.7_1
	ldrb	r1, [r1, #2]
.Ltmp101:
	.loc	2 527 5                 @ ../APP/Src/modbus_asc.c:527:5
	cmp	r0, r1
	beq	.LBB7_3
	b	.LBB7_2
.LBB7_2:
.Ltmp102:
	.loc	2 529 19 is_stmt 1      @ ../APP/Src/modbus_asc.c:529:19
	ldr	r0, __arm_cp.7_1
	ldrb	r1, [r0, #2]
	.loc	2 529 35 is_stmt 0      @ ../APP/Src/modbus_asc.c:529:35
	lsls	r1, r1, #8
	.loc	2 529 43                @ ../APP/Src/modbus_asc.c:529:43
	ldrb	r0, [r0, #3]
	.loc	2 529 41                @ ../APP/Src/modbus_asc.c:529:41
	adds	r0, r1, r0
	add	r1, sp, #32
	.loc	2 529 17                @ ../APP/Src/modbus_asc.c:529:17
	strh	r0, [r1]
	.loc	2 530 5 is_stmt 1       @ ../APP/Src/modbus_asc.c:530:5
	b	.LBB7_4
.Ltmp103:
.LBB7_3:
	.loc	2 533 32                @ ../APP/Src/modbus_asc.c:533:32
	ldr	r0, __arm_cp.7_1
	ldrb	r0, [r0, #3]
	movw	r1, #20736
	.loc	2 533 30 is_stmt 0      @ ../APP/Src/modbus_asc.c:533:30
	adds	r0, r0, r1
	add	r1, sp, #32
	.loc	2 533 17                @ ../APP/Src/modbus_asc.c:533:17
	strh	r0, [r1]
	b	.LBB7_4
.Ltmp104:
.LBB7_4:
	.loc	2 535 18 is_stmt 1      @ ../APP/Src/modbus_asc.c:535:18
	ldr	r0, __arm_cp.7_1
	ldrb	r1, [r0, #4]
	.loc	2 535 34 is_stmt 0      @ ../APP/Src/modbus_asc.c:535:34
	lsls	r1, r1, #8
	.loc	2 535 42                @ ../APP/Src/modbus_asc.c:535:42
	ldrb	r2, [r0, #5]
	.loc	2 535 40                @ ../APP/Src/modbus_asc.c:535:40
	adds	r1, r1, r2
	add	r2, sp, #36
	.loc	2 535 16                @ ../APP/Src/modbus_asc.c:535:16
	strh	r1, [r2]
	.loc	2 537 13 is_stmt 1      @ ../APP/Src/modbus_asc.c:537:13
	ldr	r1, __arm_cp.7_2
	movs	r2, #0
	strb	r2, [r1]
	.loc	2 539 26                @ ../APP/Src/modbus_asc.c:539:26
	str	r0, [sp, #12]           @ 4-byte Spill
	str	r1, [sp, #8]            @ 4-byte Spill
	bl	MBASC_GetSlaveAddr
	.loc	2 539 20 is_stmt 0      @ ../APP/Src/modbus_asc.c:539:20
	ldr	r1, [sp, #8]            @ 4-byte Reload
	ldrb	r2, [r1]
	adds	r3, r2, #1
	strb	r3, [r1]
	.loc	2 539 5                 @ ../APP/Src/modbus_asc.c:539:5
	ldr	r3, __arm_cp.7_3
	.loc	2 539 24                @ ../APP/Src/modbus_asc.c:539:24
	strb	r0, [r3, r2]
	.loc	2 540 17 is_stmt 1      @ ../APP/Src/modbus_asc.c:540:17
	ldrb	r0, [r1]
	adds	r2, r0, #1
	strb	r2, [r1]
	movs	r2, #43
	.loc	2 540 21 is_stmt 0      @ ../APP/Src/modbus_asc.c:540:21
	strb	r2, [r3, r0]
	.loc	2 541 26 is_stmt 1      @ ../APP/Src/modbus_asc.c:541:26
	ldr	r0, [sp, #12]           @ 4-byte Reload
	ldrb	r2, [r0, #4]
	.loc	2 541 20 is_stmt 0      @ ../APP/Src/modbus_asc.c:541:20
	ldrb	r4, [r1]
	adds	r5, r4, #1
	strb	r5, [r1]
	.loc	2 541 24                @ ../APP/Src/modbus_asc.c:541:24
	strb	r2, [r3, r4]
	.loc	2 542 26 is_stmt 1      @ ../APP/Src/modbus_asc.c:542:26
	ldrb	r2, [r0, #5]
	.loc	2 542 20 is_stmt 0      @ ../APP/Src/modbus_asc.c:542:20
	ldrb	r4, [r1]
	adds	r5, r4, #1
	strb	r5, [r1]
	.loc	2 542 24                @ ../APP/Src/modbus_asc.c:542:24
	strb	r2, [r3, r4]
	add	r2, sp, #32
.Ltmp105:
	.loc	2 544 13 is_stmt 1      @ ../APP/Src/modbus_asc.c:544:13
	ldrh	r2, [r2]
	ldr	r3, __arm_cp.7_4
	.loc	2 544 32 is_stmt 0      @ ../APP/Src/modbus_asc.c:544:32
	cmp	r2, r3
	blt	.LBB7_8
	b	.LBB7_5
.LBB7_5:
	.loc	2 0 32                  @ ../APP/Src/modbus_asc.c:0:32
	add	r0, sp, #32
	.loc	2 544 36                @ ../APP/Src/modbus_asc.c:544:36
	ldrh	r0, [r0]
	ldr	r1, __arm_cp.7_5
	.loc	2 544 55                @ ../APP/Src/modbus_asc.c:544:55
	cmp	r0, r1
	bgt	.LBB7_8
	b	.LBB7_6
.LBB7_6:
	.loc	2 0 55                  @ ../APP/Src/modbus_asc.c:0:55
	add	r0, sp, #32
	.loc	2 544 59                @ ../APP/Src/modbus_asc.c:544:59
	ldrh	r0, [r0]
	add	r1, sp, #36
	.loc	2 544 69                @ ../APP/Src/modbus_asc.c:544:69
	ldrh	r1, [r1]
	.loc	2 544 67                @ ../APP/Src/modbus_asc.c:544:67
	adds	r0, r0, r1
	ldr	r1, __arm_cp.7_6
	.loc	2 545 9 is_stmt 1       @ ../APP/Src/modbus_asc.c:545:9
	cmp	r0, r1
	bgt	.LBB7_8
	b	.LBB7_7
.LBB7_7:
	.loc	2 0 9 is_stmt 0         @ ../APP/Src/modbus_asc.c:0:9
	add	r0, sp, #36
	.loc	2 545 18                @ ../APP/Src/modbus_asc.c:545:18
	ldrh	r0, [r0]
.Ltmp106:
	.loc	2 544 9 is_stmt 1       @ ../APP/Src/modbus_asc.c:544:9
	cmp	r0, #0
	bne	.LBB7_9
	b	.LBB7_8
.LBB7_8:
	.loc	2 0 9 is_stmt 0         @ ../APP/Src/modbus_asc.c:0:9
	movs	r0, #2
.Ltmp107:
	.loc	2 547 9 is_stmt 1       @ ../APP/Src/modbus_asc.c:547:9
	bl	MBASC_SendErr
	.loc	2 548 9                 @ ../APP/Src/modbus_asc.c:548:9
	b	.LBB7_36
.Ltmp108:
.LBB7_9:
	.loc	2 0 9 is_stmt 0         @ ../APP/Src/modbus_asc.c:0:9
	add	r0, sp, #20
	movs	r1, #0
.Ltmp109:
	.loc	2 551 18 is_stmt 1      @ ../APP/Src/modbus_asc.c:551:18
	strb	r1, [r0]
	.loc	2 551 10 is_stmt 0      @ ../APP/Src/modbus_asc.c:551:10
	b	.LBB7_10
.LBB7_10:                               @ =>This Loop Header: Depth=1
                                        @     Child Loop BB7_25 Depth 2
	.loc	2 0 10                  @ ../APP/Src/modbus_asc.c:0:10
	add	r0, sp, #20
.Ltmp110:
	.loc	2 551 25                @ ../APP/Src/modbus_asc.c:551:25
	ldrb	r0, [r0]
	add	r1, sp, #36
	.loc	2 551 29                @ ../APP/Src/modbus_asc.c:551:29
	ldrh	r1, [r1]
.Ltmp111:
	.loc	2 551 5                 @ ../APP/Src/modbus_asc.c:551:5
	cmp	r0, r1
	blt	.LBB7_11
	b	.LBB7_35
.LBB7_11:                               @   in Loop: Header=BB7_10 Depth=1
	.loc	2 0 5                   @ ../APP/Src/modbus_asc.c:0:5
	add	r0, sp, #32
.Ltmp112:
	.loc	2 553 17 is_stmt 1      @ ../APP/Src/modbus_asc.c:553:17
	ldrh	r0, [r0]
	.loc	2 553 9 is_stmt 0       @ ../APP/Src/modbus_asc.c:553:9
	movw	r1, #20960
	subs	r0, r0, r1
	cmp	r0, #5
	str	r0, [sp, #4]            @ 4-byte Spill
	bls	.LBB7_12
	b	.LBB7_32
.LBB7_12:                               @   in Loop: Header=BB7_10 Depth=1
	.loc	2 0 9                   @ ../APP/Src/modbus_asc.c:0:9
	ldr	r0, [sp, #4]            @ 4-byte Reload
	lsls	r1, r0, #2
	adr	r2, .LJTI7_0
	adds	r1, r2, r1
	mov	pc, r1
@ %bb.13:
	.p2align	2
.LJTI7_0:
	b.w	.LBB7_14
	b.w	.LBB7_19
	b.w	.LBB7_20
	b.w	.LBB7_21
	b.w	.LBB7_30
	b.w	.LBB7_31
.LBB7_14:                               @   in Loop: Header=BB7_10 Depth=1
.Ltmp113:
	.loc	2 556 28 is_stmt 1      @ ../APP/Src/modbus_asc.c:556:28
	ldr	r0, __arm_cp.7_2
	ldrb	r1, [r0]
	adds	r2, r1, #1
	strb	r2, [r0]
	.loc	2 556 13 is_stmt 0      @ ../APP/Src/modbus_asc.c:556:13
	ldr	r0, __arm_cp.7_3
	movs	r2, #224
	.loc	2 556 32                @ ../APP/Src/modbus_asc.c:556:32
	strb	r2, [r0, r1]
	add	r0, sp, #28
.Ltmp114:
	.loc	2 558 22 is_stmt 1      @ ../APP/Src/modbus_asc.c:558:22
	ldrb	r0, [r0]
	.loc	2 558 38 is_stmt 0      @ ../APP/Src/modbus_asc.c:558:38
	cmp	r0, #0
	beq	.LBB7_16
	b	.LBB7_15
.LBB7_15:                               @   in Loop: Header=BB7_10 Depth=1
	.loc	2 0 38                  @ ../APP/Src/modbus_asc.c:0:38
	add	r0, sp, #28
	.loc	2 558 49                @ ../APP/Src/modbus_asc.c:558:49
	ldrb	r0, [r0]
.Ltmp115:
	.loc	2 558 16                @ ../APP/Src/modbus_asc.c:558:16
	cmp	r0, #51
	blt	.LBB7_17
	b	.LBB7_16
.LBB7_16:                               @   in Loop: Header=BB7_10 Depth=1
.Ltmp116:
	.loc	2 560 32 is_stmt 1      @ ../APP/Src/modbus_asc.c:560:32
	ldr	r0, __arm_cp.7_2
	ldrb	r1, [r0]
	adds	r2, r1, #1
	strb	r2, [r0]
	.loc	2 560 17 is_stmt 0      @ ../APP/Src/modbus_asc.c:560:17
	ldr	r2, __arm_cp.7_3
	movs	r3, #1
	.loc	2 560 36                @ ../APP/Src/modbus_asc.c:560:36
	strb	r3, [r2, r1]
	.loc	2 561 32 is_stmt 1      @ ../APP/Src/modbus_asc.c:561:32
	ldrb	r1, [r0]
	adds	r3, r1, #1
	strb	r3, [r0]
	movs	r0, #0
	.loc	2 561 36 is_stmt 0      @ ../APP/Src/modbus_asc.c:561:36
	strb	r0, [r2, r1]
	.loc	2 562 13 is_stmt 1      @ ../APP/Src/modbus_asc.c:562:13
	b	.LBB7_18
.Ltmp117:
.LBB7_17:                               @   in Loop: Header=BB7_10 Depth=1
	.loc	2 565 38                @ ../APP/Src/modbus_asc.c:565:38
	ldr	r0, [sp, #28]
	.loc	2 565 32 is_stmt 0      @ ../APP/Src/modbus_asc.c:565:32
	ldr	r1, __arm_cp.7_2
	ldrb	r2, [r1]
	adds	r3, r2, #1
	strb	r3, [r1]
	.loc	2 565 17                @ ../APP/Src/modbus_asc.c:565:17
	ldr	r1, __arm_cp.7_3
	.loc	2 565 36                @ ../APP/Src/modbus_asc.c:565:36
	strb	r0, [r1, r2]
	b	.LBB7_18
.Ltmp118:
.LBB7_18:                               @   in Loop: Header=BB7_10 Depth=1
	.loc	2 567 13 is_stmt 1      @ ../APP/Src/modbus_asc.c:567:13
	b	.LBB7_33
.LBB7_19:                               @   in Loop: Header=BB7_10 Depth=1
	.loc	2 570 28                @ ../APP/Src/modbus_asc.c:570:28
	ldr	r0, __arm_cp.7_2
	ldrb	r1, [r0]
	adds	r2, r1, #1
	strb	r2, [r0]
	.loc	2 570 13 is_stmt 0      @ ../APP/Src/modbus_asc.c:570:13
	ldr	r0, __arm_cp.7_3
	movs	r2, #225
	.loc	2 570 32                @ ../APP/Src/modbus_asc.c:570:32
	strb	r2, [r0, r1]
	.loc	2 572 13 is_stmt 1      @ ../APP/Src/modbus_asc.c:572:13
	b	.LBB7_33
.LBB7_20:                               @   in Loop: Header=BB7_10 Depth=1
	.loc	2 575 28                @ ../APP/Src/modbus_asc.c:575:28
	ldr	r0, __arm_cp.7_2
	ldrb	r1, [r0]
	adds	r2, r1, #1
	strb	r2, [r0]
	.loc	2 575 13 is_stmt 0      @ ../APP/Src/modbus_asc.c:575:13
	ldr	r0, __arm_cp.7_3
	movs	r2, #226
	.loc	2 575 32                @ ../APP/Src/modbus_asc.c:575:32
	strb	r2, [r0, r1]
	.loc	2 576 13 is_stmt 1      @ ../APP/Src/modbus_asc.c:576:13
	b	.LBB7_33
.LBB7_21:                               @   in Loop: Header=BB7_10 Depth=1
	.loc	2 579 28                @ ../APP/Src/modbus_asc.c:579:28
	ldr	r0, __arm_cp.7_2
	ldrb	r1, [r0]
	adds	r2, r1, #1
	strb	r2, [r0]
	.loc	2 579 13 is_stmt 0      @ ../APP/Src/modbus_asc.c:579:13
	ldr	r0, __arm_cp.7_3
	movs	r2, #227
	.loc	2 579 32                @ ../APP/Src/modbus_asc.c:579:32
	strb	r2, [r0, r1]
	add	r0, sp, #24
	movs	r1, #7
	.loc	2 580 32 is_stmt 1      @ ../APP/Src/modbus_asc.c:580:32
	strb	r1, [r0]
.Ltmp119:
	.loc	2 581 22                @ ../APP/Src/modbus_asc.c:581:22
	ldrb	r0, [r0]
	.loc	2 581 42 is_stmt 0      @ ../APP/Src/modbus_asc.c:581:42
	cmp	r0, #0
	beq	.LBB7_23
	b	.LBB7_22
.LBB7_22:                               @   in Loop: Header=BB7_10 Depth=1
	.loc	2 0 42                  @ ../APP/Src/modbus_asc.c:0:42
	add	r0, sp, #24
	.loc	2 581 53                @ ../APP/Src/modbus_asc.c:581:53
	ldrb	r0, [r0]
.Ltmp120:
	.loc	2 581 16                @ ../APP/Src/modbus_asc.c:581:16
	cmp	r0, #51
	blt	.LBB7_24
	b	.LBB7_23
.LBB7_23:                               @   in Loop: Header=BB7_10 Depth=1
.Ltmp121:
	.loc	2 583 32 is_stmt 1      @ ../APP/Src/modbus_asc.c:583:32
	ldr	r0, __arm_cp.7_2
	ldrb	r1, [r0]
	adds	r2, r1, #1
	strb	r2, [r0]
	.loc	2 583 17 is_stmt 0      @ ../APP/Src/modbus_asc.c:583:17
	ldr	r2, __arm_cp.7_3
	movs	r3, #1
	.loc	2 583 36                @ ../APP/Src/modbus_asc.c:583:36
	strb	r3, [r2, r1]
	.loc	2 584 32 is_stmt 1      @ ../APP/Src/modbus_asc.c:584:32
	ldrb	r1, [r0]
	adds	r3, r1, #1
	strb	r3, [r0]
	movs	r0, #0
	.loc	2 584 36 is_stmt 0      @ ../APP/Src/modbus_asc.c:584:36
	strb	r0, [r2, r1]
	.loc	2 585 13 is_stmt 1      @ ../APP/Src/modbus_asc.c:585:13
	b	.LBB7_29
.Ltmp122:
.LBB7_24:                               @   in Loop: Header=BB7_10 Depth=1
	.loc	2 588 38                @ ../APP/Src/modbus_asc.c:588:38
	ldr	r0, [sp, #24]
	.loc	2 588 32 is_stmt 0      @ ../APP/Src/modbus_asc.c:588:32
	ldr	r1, __arm_cp.7_2
	ldrb	r2, [r1]
	adds	r3, r2, #1
	strb	r3, [r1]
	.loc	2 588 17                @ ../APP/Src/modbus_asc.c:588:17
	ldr	r1, __arm_cp.7_3
	.loc	2 588 36                @ ../APP/Src/modbus_asc.c:588:36
	strb	r0, [r1, r2]
	add	r0, sp, #16
	movs	r1, #0
.Ltmp123:
	.loc	2 589 30 is_stmt 1      @ ../APP/Src/modbus_asc.c:589:30
	strb	r1, [r0]
	.loc	2 589 22 is_stmt 0      @ ../APP/Src/modbus_asc.c:589:22
	b	.LBB7_25
.LBB7_25:                               @   Parent Loop BB7_10 Depth=1
                                        @ =>  This Inner Loop Header: Depth=2
	.loc	2 0 22                  @ ../APP/Src/modbus_asc.c:0:22
	add	r0, sp, #16
.Ltmp124:
	.loc	2 589 37                @ ../APP/Src/modbus_asc.c:589:37
	ldrb	r0, [r0]
	add	r1, sp, #24
	.loc	2 589 41                @ ../APP/Src/modbus_asc.c:589:41
	ldrb	r1, [r1]
.Ltmp125:
	.loc	2 589 17                @ ../APP/Src/modbus_asc.c:589:17
	cmp	r0, r1
	bge	.LBB7_28
	b	.LBB7_26
.LBB7_26:                               @   in Loop: Header=BB7_25 Depth=2
	.loc	2 0 17                  @ ../APP/Src/modbus_asc.c:0:17
	add	r0, sp, #16
.Ltmp126:
	.loc	2 591 60 is_stmt 1      @ ../APP/Src/modbus_asc.c:591:60
	ldrb	r0, [r0]
	.loc	2 591 42 is_stmt 0      @ ../APP/Src/modbus_asc.c:591:42
	ldr	r1, __arm_cp.7_7
	.loc	2 591 61                @ ../APP/Src/modbus_asc.c:591:61
	adds	r0, r0, r1
	.loc	2 591 42                @ ../APP/Src/modbus_asc.c:591:42
	ldrb	r0, [r0, #1]
	.loc	2 591 36                @ ../APP/Src/modbus_asc.c:591:36
	ldr	r1, __arm_cp.7_2
	ldrb	r2, [r1]
	adds	r3, r2, #1
	strb	r3, [r1]
	.loc	2 591 21                @ ../APP/Src/modbus_asc.c:591:21
	ldr	r1, __arm_cp.7_3
	.loc	2 591 40                @ ../APP/Src/modbus_asc.c:591:40
	strb	r0, [r1, r2]
	.loc	2 592 17 is_stmt 1      @ ../APP/Src/modbus_asc.c:592:17
	b	.LBB7_27
.Ltmp127:
.LBB7_27:                               @   in Loop: Header=BB7_25 Depth=2
	.loc	2 589 62                @ ../APP/Src/modbus_asc.c:589:62
	ldr	r0, [sp, #16]
	adds	r0, r0, #1
	add	r1, sp, #16
	strb	r0, [r1]
	.loc	2 589 17 is_stmt 0      @ ../APP/Src/modbus_asc.c:589:17
	b	.LBB7_25
.Ltmp128:
.LBB7_28:                               @   in Loop: Header=BB7_10 Depth=1
	.loc	2 0 17                  @ ../APP/Src/modbus_asc.c:0:17
	b	.LBB7_29
.LBB7_29:                               @   in Loop: Header=BB7_10 Depth=1
	.loc	2 594 13 is_stmt 1      @ ../APP/Src/modbus_asc.c:594:13
	b	.LBB7_33
.LBB7_30:                               @   in Loop: Header=BB7_10 Depth=1
	.loc	2 597 28                @ ../APP/Src/modbus_asc.c:597:28
	ldr	r0, __arm_cp.7_2
	ldrb	r1, [r0]
	adds	r2, r1, #1
	strb	r2, [r0]
	.loc	2 597 13 is_stmt 0      @ ../APP/Src/modbus_asc.c:597:13
	ldr	r0, __arm_cp.7_3
	movs	r2, #228
	.loc	2 597 32                @ ../APP/Src/modbus_asc.c:597:32
	strb	r2, [r0, r1]
	.loc	2 598 13 is_stmt 1      @ ../APP/Src/modbus_asc.c:598:13
	b	.LBB7_33
.LBB7_31:                               @   in Loop: Header=BB7_10 Depth=1
	.loc	2 601 28                @ ../APP/Src/modbus_asc.c:601:28
	ldr	r0, __arm_cp.7_2
	ldrb	r1, [r0]
	adds	r2, r1, #1
	strb	r2, [r0]
	.loc	2 601 13 is_stmt 0      @ ../APP/Src/modbus_asc.c:601:13
	ldr	r0, __arm_cp.7_3
	movs	r2, #229
	.loc	2 601 32                @ ../APP/Src/modbus_asc.c:601:32
	strb	r2, [r0, r1]
	.loc	2 603 12 is_stmt 1      @ ../APP/Src/modbus_asc.c:603:12
	b	.LBB7_33
.LBB7_32:                               @   in Loop: Header=BB7_10 Depth=1
	.loc	2 606 13                @ ../APP/Src/modbus_asc.c:606:13
	b	.LBB7_33
.Ltmp129:
.LBB7_33:                               @   in Loop: Header=BB7_10 Depth=1
	.loc	2 608 5                 @ ../APP/Src/modbus_asc.c:608:5
	b	.LBB7_34
.Ltmp130:
.LBB7_34:                               @   in Loop: Header=BB7_10 Depth=1
	.loc	2 551 48                @ ../APP/Src/modbus_asc.c:551:48
	ldr	r0, [sp, #32]
	adds	r0, r0, #1
	add	r1, sp, #32
	strh	r0, [r1]
	.loc	2 551 53 is_stmt 0      @ ../APP/Src/modbus_asc.c:551:53
	ldr	r0, [sp, #20]
	adds	r0, r0, #1
	add	r1, sp, #20
	strb	r0, [r1]
	.loc	2 551 5                 @ ../APP/Src/modbus_asc.c:551:5
	b	.LBB7_10
.Ltmp131:
.LBB7_35:
	.loc	2 609 28 is_stmt 1      @ ../APP/Src/modbus_asc.c:609:28
	ldr	r0, __arm_cp.7_2
	ldrb	r1, [r0]
	.loc	2 609 5 is_stmt 0       @ ../APP/Src/modbus_asc.c:609:5
	ldr	r0, __arm_cp.7_3
	bl	MBASC_SendMsg
	.loc	2 610 1 is_stmt 1       @ ../APP/Src/modbus_asc.c:610:1
	b	.LBB7_36
.LBB7_36:
	add	sp, #40
	pop	{r4, r5, r7, pc}
.Ltmp132:
	.p2align	2
@ %bb.37:
	.loc	2 0 1 is_stmt 0         @ ../APP/Src/modbus_asc.c:0:1
__arm_cp.7_0:
	.long	UserPara
.Lcpi_end23:
	.size	__arm_cp.7_0, .Lcpi_end23-__arm_cp.7_0
__arm_cp.7_1:
	.long	UARTx_RXBuff
.Lcpi_end24:
	.size	__arm_cp.7_1, .Lcpi_end24-__arm_cp.7_1
__arm_cp.7_2:
	.long	SendLen
.Lcpi_end25:
	.size	__arm_cp.7_2, .Lcpi_end25-__arm_cp.7_2
__arm_cp.7_3:
	.long	SendBuf
.Lcpi_end26:
	.size	__arm_cp.7_3, .Lcpi_end26-__arm_cp.7_3
__arm_cp.7_4:
	.long	20960                   @ 0x51e0
.Lcpi_end27:
	.size	__arm_cp.7_4, .Lcpi_end27-__arm_cp.7_4
__arm_cp.7_5:
	.long	20965                   @ 0x51e5
.Lcpi_end28:
	.size	__arm_cp.7_5, .Lcpi_end28-__arm_cp.7_5
__arm_cp.7_6:
	.long	29158                   @ 0x71e6
.Lcpi_end29:
	.size	__arm_cp.7_6, .Lcpi_end29-__arm_cp.7_6
__arm_cp.7_7:
	.long	SensorSoftVersion
.Lcpi_end30:
	.size	__arm_cp.7_7, .Lcpi_end30-__arm_cp.7_7
.Lfunc_end7:
	.size	MBASC_Fun2B, .Lfunc_end7-MBASC_Fun2B
	.cfi_endproc
	.cantunwind
	.fnend
                                        @ -- End function
	.section	.text.MBASC_Fun41,"ax",%progbits
	.hidden	MBASC_Fun41             @ -- Begin function MBASC_Fun41
	.globl	MBASC_Fun41
	.p2align	2
	.type	MBASC_Fun41,%function
	.code	16                      @ @MBASC_Fun41
	.thumb_func
MBASC_Fun41:
.Lfunc_begin8:
	.loc	2 626 0 is_stmt 1       @ ../APP/Src/modbus_asc.c:626:0
	.fnstart
	.cfi_startproc
@ %bb.0:
	.save	{r4, r5, r7, lr}
	push	{r4, r5, r7, lr}
	.cfi_def_cfa_offset 16
	.cfi_offset lr, -4
	.cfi_offset r7, -8
	.cfi_offset r5, -12
	.cfi_offset r4, -16
	.pad	#32
	sub	sp, #32
	.cfi_def_cfa_offset 48
	add	r0, sp, #28
	movs	r1, #255
.Ltmp133:
	.loc	2 627 10 prologue_end   @ ../APP/Src/modbus_asc.c:627:10
	strb	r1, [r0]
	add	r0, sp, #24
	movs	r1, #0
	.loc	2 628 14                @ ../APP/Src/modbus_asc.c:628:14
	strh	r1, [r0]
	add	r2, sp, #20
	.loc	2 629 14                @ ../APP/Src/modbus_asc.c:629:14
	strh	r1, [r2]
	.loc	2 632 27                @ ../APP/Src/modbus_asc.c:632:27
	ldr	r3, __arm_cp.8_0
	ldrb	r4, [r3, #2]
	.loc	2 632 42 is_stmt 0      @ ../APP/Src/modbus_asc.c:632:42
	lsls	r4, r4, #8
	.loc	2 632 51                @ ../APP/Src/modbus_asc.c:632:51
	ldrb	r5, [r3, #3]
	.loc	2 632 49                @ ../APP/Src/modbus_asc.c:632:49
	adds	r4, r4, r5
	.loc	2 632 13                @ ../APP/Src/modbus_asc.c:632:13
	strh	r4, [r0]
	.loc	2 633 30 is_stmt 1      @ ../APP/Src/modbus_asc.c:633:30
	ldrb	r0, [r3, #4]
	.loc	2 633 45 is_stmt 0      @ ../APP/Src/modbus_asc.c:633:45
	lsls	r0, r0, #8
	.loc	2 633 54                @ ../APP/Src/modbus_asc.c:633:54
	ldrb	r4, [r3, #5]
	.loc	2 633 52                @ ../APP/Src/modbus_asc.c:633:52
	adds	r0, r0, r4
	.loc	2 633 16                @ ../APP/Src/modbus_asc.c:633:16
	strh	r0, [r2]
	.loc	2 635 13 is_stmt 1      @ ../APP/Src/modbus_asc.c:635:13
	ldr	r0, __arm_cp.8_1
	strb	r1, [r0]
	.loc	2 637 26                @ ../APP/Src/modbus_asc.c:637:26
	str	r0, [sp, #12]           @ 4-byte Spill
	mov	r0, r3
	bl	MBASC_GetSlaveAddr
	.loc	2 637 20 is_stmt 0      @ ../APP/Src/modbus_asc.c:637:20
	ldr	r1, [sp, #12]           @ 4-byte Reload
	ldrb	r2, [r1]
	adds	r3, r2, #1
	strb	r3, [r1]
	.loc	2 637 5                 @ ../APP/Src/modbus_asc.c:637:5
	ldr	r3, __arm_cp.8_2
	.loc	2 637 24                @ ../APP/Src/modbus_asc.c:637:24
	strb	r0, [r3, r2]
	.loc	2 638 17 is_stmt 1      @ ../APP/Src/modbus_asc.c:638:17
	ldrb	r0, [r1]
	adds	r2, r0, #1
	strb	r2, [r1]
	movs	r2, #65
	.loc	2 638 21 is_stmt 0      @ ../APP/Src/modbus_asc.c:638:21
	strb	r2, [r3, r0]
	add	r0, sp, #16
	movs	r2, #2
.Ltmp134:
	.loc	2 639 17 is_stmt 1      @ ../APP/Src/modbus_asc.c:639:17
	strb	r2, [r0]
	.loc	2 639 9 is_stmt 0       @ ../APP/Src/modbus_asc.c:639:9
	b	.LBB8_1
.LBB8_1:                                @ =>This Inner Loop Header: Depth=1
	.loc	2 0 9                   @ ../APP/Src/modbus_asc.c:0:9
	add	r0, sp, #16
.Ltmp135:
	.loc	2 639 24                @ ../APP/Src/modbus_asc.c:639:24
	ldrb	r0, [r0]
.Ltmp136:
	.loc	2 639 5                 @ ../APP/Src/modbus_asc.c:639:5
	cmp	r0, #5
	bgt	.LBB8_4
	b	.LBB8_2
.LBB8_2:                                @   in Loop: Header=BB8_1 Depth=1
	.loc	2 0 5                   @ ../APP/Src/modbus_asc.c:0:5
	add	r0, sp, #16
.Ltmp137:
	.loc	2 641 43 is_stmt 1      @ ../APP/Src/modbus_asc.c:641:43
	ldrb	r0, [r0]
	.loc	2 641 30 is_stmt 0      @ ../APP/Src/modbus_asc.c:641:30
	ldr	r1, __arm_cp.8_0
	ldrb	r0, [r1, r0]
	.loc	2 641 24                @ ../APP/Src/modbus_asc.c:641:24
	ldr	r1, __arm_cp.8_1
	ldrb	r2, [r1]
	adds	r3, r2, #1
	strb	r3, [r1]
	.loc	2 641 9                 @ ../APP/Src/modbus_asc.c:641:9
	ldr	r1, __arm_cp.8_2
	.loc	2 641 28                @ ../APP/Src/modbus_asc.c:641:28
	strb	r0, [r1, r2]
	.loc	2 642 5 is_stmt 1       @ ../APP/Src/modbus_asc.c:642:5
	b	.LBB8_3
.Ltmp138:
.LBB8_3:                                @   in Loop: Header=BB8_1 Depth=1
	.loc	2 639 32                @ ../APP/Src/modbus_asc.c:639:32
	ldr	r0, [sp, #16]
	adds	r0, r0, #1
	add	r1, sp, #16
	strb	r0, [r1]
	.loc	2 639 5 is_stmt 0       @ ../APP/Src/modbus_asc.c:639:5
	b	.LBB8_1
.Ltmp139:
.LBB8_4:
	.loc	2 0 5                   @ ../APP/Src/modbus_asc.c:0:5
	add	r0, sp, #24
.Ltmp140:
	.loc	2 644 19 is_stmt 1      @ ../APP/Src/modbus_asc.c:644:19
	ldrh	r0, [r0]
	.loc	2 644 28 is_stmt 0      @ ../APP/Src/modbus_asc.c:644:28
	cmp	r0, #1
	bne	.LBB8_7
	b	.LBB8_5
.LBB8_5:
	.loc	2 0 28                  @ ../APP/Src/modbus_asc.c:0:28
	add	r0, sp, #20
	.loc	2 644 37                @ ../APP/Src/modbus_asc.c:644:37
	ldrh	r0, [r0]
	.loc	2 644 49                @ ../APP/Src/modbus_asc.c:644:49
	cmp	r0, #0
	bne	.LBB8_7
	b	.LBB8_6
.LBB8_6:
	.loc	2 644 53                @ ../APP/Src/modbus_asc.c:644:53
	ldr	r0, __arm_cp.8_0
	ldrb	r0, [r0]
.Ltmp141:
	.loc	2 644 8                 @ ../APP/Src/modbus_asc.c:644:8
	cmp	r0, #0
	bne	.LBB8_8
	b	.LBB8_7
.LBB8_7:
.Ltmp142:
	.loc	2 646 9 is_stmt 1       @ ../APP/Src/modbus_asc.c:646:9
	add	sp, #32
	pop	{r4, r5, r7, pc}
.Ltmp143:
.LBB8_8:
	.loc	2 0 9 is_stmt 0         @ ../APP/Src/modbus_asc.c:0:9
	movs	r0, #0
	add	r1, sp, #28
	movs	r2, #1
.Ltmp144:
	.loc	2 651 3 is_stmt 1       @ ../APP/Src/modbus_asc.c:651:3
	str	r0, [sp, #8]            @ 4-byte Spill
	bl	Flash_Write_MultiBytes
	.loc	2 652 24                @ ../APP/Src/modbus_asc.c:652:24
	ldr	r1, __arm_cp.8_1
	ldrb	r2, [r1]
	adds	r3, r2, #1
	strb	r3, [r1]
	.loc	2 652 9 is_stmt 0       @ ../APP/Src/modbus_asc.c:652:9
	ldr	r3, __arm_cp.8_2
	.loc	2 652 28                @ ../APP/Src/modbus_asc.c:652:28
	ldr	r4, [sp, #8]            @ 4-byte Reload
	strb	r4, [r3, r2]
	.loc	2 653 32 is_stmt 1      @ ../APP/Src/modbus_asc.c:653:32
	ldrb	r1, [r1]
	.loc	2 653 9 is_stmt 0       @ ../APP/Src/modbus_asc.c:653:9
	str	r0, [sp, #4]            @ 4-byte Spill
	mov	r0, r3
	bl	MBASC_SendMsg
	movs	r0, #20
	.loc	2 654 3 is_stmt 1       @ ../APP/Src/modbus_asc.c:654:3
	bl	Delay_1Ms
	.loc	2 655 9                 @ ../APP/Src/modbus_asc.c:655:9
	bl	__NVIC_SystemReset
.Ltmp145:
	.p2align	2
@ %bb.9:
	.loc	2 0 9 is_stmt 0         @ ../APP/Src/modbus_asc.c:0:9
__arm_cp.8_0:
	.long	UARTx_RXBuff
.Lcpi_end31:
	.size	__arm_cp.8_0, .Lcpi_end31-__arm_cp.8_0
__arm_cp.8_1:
	.long	SendLen
.Lcpi_end32:
	.size	__arm_cp.8_1, .Lcpi_end32-__arm_cp.8_1
__arm_cp.8_2:
	.long	SendBuf
.Lcpi_end33:
	.size	__arm_cp.8_2, .Lcpi_end33-__arm_cp.8_2
.Lfunc_end8:
	.size	MBASC_Fun41, .Lfunc_end8-MBASC_Fun41
	.cfi_endproc
	.cantunwind
	.fnend
                                        @ -- End function
	.section	.text.__NVIC_SystemReset,"ax",%progbits
	.p2align	2               @ -- Begin function __NVIC_SystemReset
	.type	__NVIC_SystemReset,%function
	.code	16                      @ @__NVIC_SystemReset
	.thumb_func
__NVIC_SystemReset:
.Lfunc_begin9:
	.loc	3 1857 0 is_stmt 1      @ D:/Keil_v5\Arm\Packs\ARM\CMSIS\5.7.0\CMSIS\Core\Include\core_cm23.h:1857:0
	.fnstart
	.cfi_startproc
@ %bb.0:
	.loc	3 1858 3 prologue_end   @ D:/Keil_v5\Arm\Packs\ARM\CMSIS\5.7.0\CMSIS\Core\Include\core_cm23.h:1858:3
	dsb	sy
	ldr	r0, __arm_cp.9_0
	ldr	r1, __arm_cp.9_1
	.loc	3 1860 15               @ D:/Keil_v5\Arm\Packs\ARM\CMSIS\5.7.0\CMSIS\Core\Include\core_cm23.h:1860:15
	str	r1, [r0]
	.loc	3 1862 3                @ D:/Keil_v5\Arm\Packs\ARM\CMSIS\5.7.0\CMSIS\Core\Include\core_cm23.h:1862:3
	dsb	sy
	.loc	3 1864 3                @ D:/Keil_v5\Arm\Packs\ARM\CMSIS\5.7.0\CMSIS\Core\Include\core_cm23.h:1864:3
	b	.LBB9_1
.LBB9_1:                                @ =>This Inner Loop Header: Depth=1
.Ltmp146:
	.loc	3 1866 5                @ D:/Keil_v5\Arm\Packs\ARM\CMSIS\5.7.0\CMSIS\Core\Include\core_cm23.h:1866:5
	nop
.Ltmp147:
	.loc	3 1864 3                @ D:/Keil_v5\Arm\Packs\ARM\CMSIS\5.7.0\CMSIS\Core\Include\core_cm23.h:1864:3
	b	.LBB9_1
.Ltmp148:
	.p2align	2
@ %bb.2:
	.loc	3 0 3 is_stmt 0         @ D:/Keil_v5\Arm\Packs\ARM\CMSIS\5.7.0\CMSIS\Core\Include\core_cm23.h:0:3
__arm_cp.9_0:
	.long	3758157068              @ 0xe000ed0c
.Lcpi_end34:
	.size	__arm_cp.9_0, .Lcpi_end34-__arm_cp.9_0
__arm_cp.9_1:
	.long	100270084               @ 0x5fa0004
.Lcpi_end35:
	.size	__arm_cp.9_1, .Lcpi_end35-__arm_cp.9_1
.Lfunc_end9:
	.size	__NVIC_SystemReset, .Lfunc_end9-__NVIC_SystemReset
	.cfi_endproc
	.cantunwind
	.fnend
                                        @ -- End function
	.section	.text.MBASC_Function,"ax",%progbits
	.hidden	MBASC_Function          @ -- Begin function MBASC_Function
	.globl	MBASC_Function
	.p2align	2
	.type	MBASC_Function,%function
	.code	16                      @ @MBASC_Function
	.thumb_func
MBASC_Function:
.Lfunc_begin10:
	.loc	2 674 0 is_stmt 1       @ ../APP/Src/modbus_asc.c:674:0
	.fnstart
	.cfi_startproc
@ %bb.0:
	.save	{r4, lr}
	push	{r4, lr}
	.cfi_def_cfa_offset 8
	.cfi_offset lr, -4
	.cfi_offset r4, -8
	.pad	#16
	sub	sp, #16
	.cfi_def_cfa_offset 24
	add	r0, sp, #12
	movs	r1, #0
.Ltmp149:
	.loc	2 675 14 prologue_end   @ ../APP/Src/modbus_asc.c:675:14
	strh	r1, [r0]
.Ltmp150:
	.loc	2 678 17                @ ../APP/Src/modbus_asc.c:678:17
	ldr	r1, __arm_cp.10_0
	str	r0, [sp, #8]            @ 4-byte Spill
	mov	r0, r1
	ldr	r1, [sp, #8]            @ 4-byte Reload
	bl	MODBUS_ASCII_RecvData
.Ltmp151:
	.loc	2 678 12 is_stmt 0      @ ../APP/Src/modbus_asc.c:678:12
	cmp	r0, #2
	bne	.LBB10_2
	b	.LBB10_1
.LBB10_1:
.Ltmp152:
	.loc	2 680 13 is_stmt 1      @ ../APP/Src/modbus_asc.c:680:13
	b	.LBB10_25
.Ltmp153:
.LBB10_2:
	.loc	2 683 6                 @ ../APP/Src/modbus_asc.c:683:6
	ldr	r0, __arm_cp.10_0
	ldrb	r0, [r0]
	.loc	2 683 30 is_stmt 0      @ ../APP/Src/modbus_asc.c:683:30
	cmp	r0, #41
	bgt	.LBB10_5
	b	.LBB10_3
.LBB10_3:
	.loc	2 683 33                @ ../APP/Src/modbus_asc.c:683:33
	ldr	r0, __arm_cp.10_0
	ldrb	r0, [r0]
.Ltmp154:
	.loc	2 683 6                 @ ../APP/Src/modbus_asc.c:683:6
	cmp	r0, #38
	blt	.LBB10_5
	b	.LBB10_4
.LBB10_4:
.Ltmp155:
	.loc	2 685 25 is_stmt 1      @ ../APP/Src/modbus_asc.c:685:25
	ldr	r0, __arm_cp.10_1
	movs	r1, #1
	strb	r1, [r0, #26]
	.loc	2 686 9                 @ ../APP/Src/modbus_asc.c:686:9
	b	.LBB10_6
.Ltmp156:
.LBB10_5:
	.loc	2 689 25                @ ../APP/Src/modbus_asc.c:689:25
	ldr	r0, __arm_cp.10_1
	movs	r1, #0
	strb	r1, [r0, #26]
	b	.LBB10_6
.Ltmp157:
.LBB10_6:
	.loc	2 0 25 is_stmt 0        @ ../APP/Src/modbus_asc.c:0:25
	add	r0, sp, #12
.Ltmp158:
	.loc	2 692 12 is_stmt 1      @ ../APP/Src/modbus_asc.c:692:12
	ldrh	r0, [r0]
.Ltmp159:
	.loc	2 692 12 is_stmt 0      @ ../APP/Src/modbus_asc.c:692:12
	cmp	r0, #0
	bgt	.LBB10_8
	b	.LBB10_7
.LBB10_7:
.Ltmp160:
	.loc	2 694 13 is_stmt 1      @ ../APP/Src/modbus_asc.c:694:13
	b	.LBB10_25
.Ltmp161:
.LBB10_8:
	.loc	2 697 30                @ ../APP/Src/modbus_asc.c:697:30
	ldr	r0, __arm_cp.10_2
	ldrb	r0, [r0]
	.loc	2 697 48 is_stmt 0      @ ../APP/Src/modbus_asc.c:697:48
	ldr	r1, __arm_cp.10_0
	ldrb	r1, [r1]
	.loc	2 697 65                @ ../APP/Src/modbus_asc.c:697:65
	cmp	r0, r1
	beq	.LBB10_12
	b	.LBB10_9
.LBB10_9:
	.loc	2 697 78                @ ../APP/Src/modbus_asc.c:697:78
	ldr	r0, __arm_cp.10_2
	ldrb	r0, [r0, #1]
	.loc	2 697 96                @ ../APP/Src/modbus_asc.c:697:96
	ldr	r1, __arm_cp.10_0
	ldrb	r1, [r1]
	.loc	2 697 115               @ ../APP/Src/modbus_asc.c:697:115
	cmp	r0, r1
	beq	.LBB10_12
	b	.LBB10_10
.LBB10_10:
	.loc	2 697 143               @ ../APP/Src/modbus_asc.c:697:143
	ldr	r0, __arm_cp.10_0
	ldrb	r0, [r0]
.Ltmp162:
	.loc	2 697 17                @ ../APP/Src/modbus_asc.c:697:17
	cmp	r0, #0
	beq	.LBB10_12
	b	.LBB10_11
.LBB10_11:
.Ltmp163:
	.loc	2 699 13 is_stmt 1      @ ../APP/Src/modbus_asc.c:699:13
	b	.LBB10_25
.Ltmp164:
.LBB10_12:
	.loc	2 704 21                @ ../APP/Src/modbus_asc.c:704:21
	ldr	r0, __arm_cp.10_0
	ldrb	r0, [r0, #1]
	.loc	2 704 13 is_stmt 0      @ ../APP/Src/modbus_asc.c:704:13
	cmp	r0, #3
	str	r0, [sp, #4]            @ 4-byte Spill
	beq	.LBB10_17
	b	.LBB10_13
.LBB10_13:
	ldr	r0, [sp, #4]            @ 4-byte Reload
	cmp	r0, #4
	beq	.LBB10_18
	b	.LBB10_14
.LBB10_14:
	ldr	r0, [sp, #4]            @ 4-byte Reload
	cmp	r0, #16
	beq	.LBB10_19
	b	.LBB10_15
.LBB10_15:
	ldr	r0, [sp, #4]            @ 4-byte Reload
	cmp	r0, #43
	beq	.LBB10_20
	b	.LBB10_16
.LBB10_16:
	ldr	r0, [sp, #4]            @ 4-byte Reload
	cmp	r0, #65
	beq	.LBB10_21
	b	.LBB10_22
.LBB10_17:
.Ltmp165:
	.loc	2 707 17 is_stmt 1      @ ../APP/Src/modbus_asc.c:707:17
	bl	MBASC_Fun03
	.loc	2 708 17                @ ../APP/Src/modbus_asc.c:708:17
	b	.LBB10_23
.LBB10_18:
	.loc	2 711 17                @ ../APP/Src/modbus_asc.c:711:17
	bl	MBASC_Fun04
	.loc	2 712 17                @ ../APP/Src/modbus_asc.c:712:17
	b	.LBB10_23
.LBB10_19:
	.loc	2 715 17                @ ../APP/Src/modbus_asc.c:715:17
	bl	MBASC_Fun10
	.loc	2 716 17                @ ../APP/Src/modbus_asc.c:716:17
	b	.LBB10_23
.LBB10_20:
	.loc	2 719 17                @ ../APP/Src/modbus_asc.c:719:17
	bl	MBASC_Fun2B
	.loc	2 720 17                @ ../APP/Src/modbus_asc.c:720:17
	b	.LBB10_23
.LBB10_21:
	.loc	2 723 17                @ ../APP/Src/modbus_asc.c:723:17
	bl	MBASC_Fun41
	.loc	2 724 17                @ ../APP/Src/modbus_asc.c:724:17
	b	.LBB10_23
.LBB10_22:
	.loc	2 727 25                @ ../APP/Src/modbus_asc.c:727:25
	ldr	r0, __arm_cp.10_3
	movs	r1, #0
	strb	r1, [r0]
	.loc	2 728 38                @ ../APP/Src/modbus_asc.c:728:38
	ldr	r1, __arm_cp.10_0
	ldrb	r2, [r1]
	.loc	2 728 32 is_stmt 0      @ ../APP/Src/modbus_asc.c:728:32
	ldrb	r3, [r0]
	adds	r4, r3, #1
	strb	r4, [r0]
	.loc	2 728 17                @ ../APP/Src/modbus_asc.c:728:17
	ldr	r4, __arm_cp.10_4
	.loc	2 728 36                @ ../APP/Src/modbus_asc.c:728:36
	strb	r2, [r4, r3]
	.loc	2 729 45 is_stmt 1      @ ../APP/Src/modbus_asc.c:729:45
	ldrb	r1, [r1, #1]
	movs	r2, #128
	.loc	2 729 43 is_stmt 0      @ ../APP/Src/modbus_asc.c:729:43
	orrs	r1, r2
	.loc	2 729 32                @ ../APP/Src/modbus_asc.c:729:32
	ldrb	r2, [r0]
	adds	r3, r2, #1
	strb	r3, [r0]
	.loc	2 729 36                @ ../APP/Src/modbus_asc.c:729:36
	strb	r1, [r4, r2]
	.loc	2 730 32 is_stmt 1      @ ../APP/Src/modbus_asc.c:730:32
	ldrb	r1, [r0]
	adds	r2, r1, #1
	strb	r2, [r0]
	movs	r2, #1
	.loc	2 730 36 is_stmt 0      @ ../APP/Src/modbus_asc.c:730:36
	strb	r2, [r4, r1]
	.loc	2 731 40 is_stmt 1      @ ../APP/Src/modbus_asc.c:731:40
	ldrb	r1, [r0]
	.loc	2 731 17 is_stmt 0      @ ../APP/Src/modbus_asc.c:731:17
	mov	r0, r4
	bl	MBASC_SendMsg
	.loc	2 732 17 is_stmt 1      @ ../APP/Src/modbus_asc.c:732:17
	b	.LBB10_23
.Ltmp166:
.LBB10_23:
	.loc	2 0 17 is_stmt 0        @ ../APP/Src/modbus_asc.c:0:17
	b	.LBB10_24
.LBB10_24:
	b	.LBB10_25
.LBB10_25:
	.loc	2 736 1 is_stmt 1       @ ../APP/Src/modbus_asc.c:736:1
	add	sp, #16
	pop	{r4, pc}
.Ltmp167:
	.p2align	2
@ %bb.26:
	.loc	2 0 1 is_stmt 0         @ ../APP/Src/modbus_asc.c:0:1
__arm_cp.10_0:
	.long	UARTx_RXBuff
.Lcpi_end36:
	.size	__arm_cp.10_0, .Lcpi_end36-__arm_cp.10_0
__arm_cp.10_1:
	.long	T_H
.Lcpi_end37:
	.size	__arm_cp.10_1, .Lcpi_end37-__arm_cp.10_1
__arm_cp.10_2:
	.long	UserPara
.Lcpi_end38:
	.size	__arm_cp.10_2, .Lcpi_end38-__arm_cp.10_2
__arm_cp.10_3:
	.long	SendLen
.Lcpi_end39:
	.size	__arm_cp.10_3, .Lcpi_end39-__arm_cp.10_3
__arm_cp.10_4:
	.long	SendBuf
.Lcpi_end40:
	.size	__arm_cp.10_4, .Lcpi_end40-__arm_cp.10_4
.Lfunc_end10:
	.size	MBASC_Function, .Lfunc_end10-MBASC_Function
	.cfi_endproc
	.cantunwind
	.fnend
                                        @ -- End function
	.section	.text.MBASC_AutoUpLoadFrame,"ax",%progbits
	.hidden	MBASC_AutoUpLoadFrame   @ -- Begin function MBASC_AutoUpLoadFrame
	.globl	MBASC_AutoUpLoadFrame
	.p2align	2
	.type	MBASC_AutoUpLoadFrame,%function
	.code	16                      @ @MBASC_AutoUpLoadFrame
	.thumb_func
MBASC_AutoUpLoadFrame:
.Lfunc_begin11:
	.loc	2 740 0 is_stmt 1       @ ../APP/Src/modbus_asc.c:740:0
	.fnstart
	.cfi_startproc
@ %bb.0:
	.save	{r7, lr}
	push	{r7, lr}
	.cfi_def_cfa_offset 8
	.cfi_offset lr, -4
	.cfi_offset r7, -8
	.pad	#24
	sub	sp, #24
	.cfi_def_cfa_offset 32
.Ltmp168:
	.loc	2 745 13 prologue_end   @ ../APP/Src/modbus_asc.c:745:13
	ldr	r0, __arm_cp.11_0
	movs	r1, #0
	strb	r1, [r0]
.Ltmp169:
	.loc	2 747 12                @ ../APP/Src/modbus_asc.c:747:12
	ldr	r0, __arm_cp.11_1
	ldrb	r0, [r0, #26]
.Ltmp170:
	.loc	2 747 8 is_stmt 0       @ ../APP/Src/modbus_asc.c:747:8
	cmp	r0, #0
	beq	.LBB11_2
	b	.LBB11_1
.LBB11_1:
.Ltmp171:
	.loc	2 749 33 is_stmt 1      @ ../APP/Src/modbus_asc.c:749:33
	ldr	r0, __arm_cp.11_1
	ldrh	r0, [r0, #2]
	.loc	2 749 21 is_stmt 0      @ ../APP/Src/modbus_asc.c:749:21
	str	r0, [sp, #4]
	.loc	2 750 5 is_stmt 1       @ ../APP/Src/modbus_asc.c:750:5
	b	.LBB11_3
.Ltmp172:
.LBB11_2:
	.loc	2 753 33                @ ../APP/Src/modbus_asc.c:753:33
	ldr	r0, __arm_cp.11_1
	ldrh	r0, [r0]
	.loc	2 753 21 is_stmt 0      @ ../APP/Src/modbus_asc.c:753:21
	str	r0, [sp, #4]
	b	.LBB11_3
.Ltmp173:
.LBB11_3:
	.loc	2 755 36 is_stmt 1      @ ../APP/Src/modbus_asc.c:755:36
	ldr	r0, __arm_cp.11_1
	ldrb	r1, [r0, #26]
	.loc	2 755 19 is_stmt 0      @ ../APP/Src/modbus_asc.c:755:19
	lsls	r1, r1, #2
	adds	r1, r0, r1
	ldr	r1, [r1, #16]
	.loc	2 755 17                @ ../APP/Src/modbus_asc.c:755:17
	str	r1, [sp, #8]
	.loc	2 757 36 is_stmt 1      @ ../APP/Src/modbus_asc.c:757:36
	ldrb	r1, [r0, #26]
	.loc	2 757 19 is_stmt 0      @ ../APP/Src/modbus_asc.c:757:19
	lsls	r1, r1, #2
	adds	r0, r0, r1
	ldr	r0, [r0, #28]
	.loc	2 757 17                @ ../APP/Src/modbus_asc.c:757:17
	str	r0, [sp, #12]
	add	r0, sp, #16
	movs	r1, #0
.Ltmp174:
	.loc	2 759 11 is_stmt 1      @ ../APP/Src/modbus_asc.c:759:11
	strb	r1, [r0]
	.loc	2 759 9 is_stmt 0       @ ../APP/Src/modbus_asc.c:759:9
	b	.LBB11_4
.LBB11_4:                               @ =>This Loop Header: Depth=1
                                        @     Child Loop BB11_6 Depth 2
	.loc	2 0 9                   @ ../APP/Src/modbus_asc.c:0:9
	add	r0, sp, #16
.Ltmp175:
	.loc	2 759 16                @ ../APP/Src/modbus_asc.c:759:16
	ldrb	r0, [r0]
.Ltmp176:
	.loc	2 759 5                 @ ../APP/Src/modbus_asc.c:759:5
	cmp	r0, #2
	bhi	.LBB11_11
	b	.LBB11_5
.LBB11_5:                               @   in Loop: Header=BB11_4 Depth=1
	.loc	2 0 5                   @ ../APP/Src/modbus_asc.c:0:5
	add	r0, sp, #20
	movs	r1, #4
.Ltmp177:
	.loc	2 761 15 is_stmt 1      @ ../APP/Src/modbus_asc.c:761:15
	strb	r1, [r0]
	.loc	2 761 13 is_stmt 0      @ ../APP/Src/modbus_asc.c:761:13
	b	.LBB11_6
.LBB11_6:                               @   Parent Loop BB11_4 Depth=1
                                        @ =>  This Inner Loop Header: Depth=2
	.loc	2 0 13                  @ ../APP/Src/modbus_asc.c:0:13
	add	r0, sp, #20
.Ltmp178:
	.loc	2 761 20                @ ../APP/Src/modbus_asc.c:761:20
	ldrb	r0, [r0]
.Ltmp179:
	.loc	2 761 9                 @ ../APP/Src/modbus_asc.c:761:9
	cmp	r0, #1
	blt	.LBB11_9
	b	.LBB11_7
.LBB11_7:                               @   in Loop: Header=BB11_6 Depth=2
	.loc	2 0 9                   @ ../APP/Src/modbus_asc.c:0:9
	add	r0, sp, #16
.Ltmp180:
	.loc	2 763 53 is_stmt 1      @ ../APP/Src/modbus_asc.c:763:53
	ldrb	r0, [r0]
	.loc	2 763 44 is_stmt 0      @ ../APP/Src/modbus_asc.c:763:44
	lsls	r0, r0, #2
	add	r1, sp, #4
	ldr	r0, [r1, r0]
	add	r1, sp, #20
	.loc	2 763 61                @ ../APP/Src/modbus_asc.c:763:61
	ldrb	r1, [r1]
	.loc	2 763 63                @ ../APP/Src/modbus_asc.c:763:63
	lsls	r1, r1, #3
	.loc	2 763 68                @ ../APP/Src/modbus_asc.c:763:68
	subs	r1, #8
	.loc	2 763 56                @ ../APP/Src/modbus_asc.c:763:56
	lsrs	r0, r1
	.loc	2 763 28                @ ../APP/Src/modbus_asc.c:763:28
	ldr	r1, __arm_cp.11_0
	ldrb	r2, [r1]
	adds	r3, r2, #1
	strb	r3, [r1]
	.loc	2 763 13                @ ../APP/Src/modbus_asc.c:763:13
	ldr	r1, __arm_cp.11_2
	.loc	2 763 32                @ ../APP/Src/modbus_asc.c:763:32
	strb	r0, [r1, r2]
	.loc	2 764 9 is_stmt 1       @ ../APP/Src/modbus_asc.c:764:9
	b	.LBB11_8
.Ltmp181:
.LBB11_8:                               @   in Loop: Header=BB11_6 Depth=2
	.loc	2 761 28                @ ../APP/Src/modbus_asc.c:761:28
	ldr	r0, [sp, #20]
	subs	r0, r0, #1
	add	r1, sp, #20
	strb	r0, [r1]
	.loc	2 761 9 is_stmt 0       @ ../APP/Src/modbus_asc.c:761:9
	b	.LBB11_6
.Ltmp182:
.LBB11_9:                               @   in Loop: Header=BB11_4 Depth=1
	.loc	2 765 5 is_stmt 1       @ ../APP/Src/modbus_asc.c:765:5
	b	.LBB11_10
.Ltmp183:
.LBB11_10:                              @   in Loop: Header=BB11_4 Depth=1
	.loc	2 759 61                @ ../APP/Src/modbus_asc.c:759:61
	ldr	r0, [sp, #16]
	adds	r0, r0, #1
	add	r1, sp, #16
	strb	r0, [r1]
	.loc	2 759 5 is_stmt 0       @ ../APP/Src/modbus_asc.c:759:5
	b	.LBB11_4
.Ltmp184:
.LBB11_11:
	.loc	2 766 36 is_stmt 1      @ ../APP/Src/modbus_asc.c:766:36
	ldr	r0, __arm_cp.11_0
	ldrb	r1, [r0]
	.loc	2 766 5 is_stmt 0       @ ../APP/Src/modbus_asc.c:766:5
	ldr	r0, __arm_cp.11_2
	bl	MBASC_SendMsg_NoLimit
	.loc	2 767 1 is_stmt 1       @ ../APP/Src/modbus_asc.c:767:1
	add	sp, #24
	pop	{r7, pc}
.Ltmp185:
	.p2align	2
@ %bb.12:
	.loc	2 0 1 is_stmt 0         @ ../APP/Src/modbus_asc.c:0:1
__arm_cp.11_0:
	.long	SendLen
.Lcpi_end41:
	.size	__arm_cp.11_0, .Lcpi_end41-__arm_cp.11_0
__arm_cp.11_1:
	.long	T_H
.Lcpi_end42:
	.size	__arm_cp.11_1, .Lcpi_end42-__arm_cp.11_1
__arm_cp.11_2:
	.long	SendBuf
.Lcpi_end43:
	.size	__arm_cp.11_2, .Lcpi_end43-__arm_cp.11_2
.Lfunc_end11:
	.size	MBASC_AutoUpLoadFrame, .Lfunc_end11-MBASC_AutoUpLoadFrame
	.cfi_endproc
	.cantunwind
	.fnend
                                        @ -- End function
	.hidden	StartFlag               @ @StartFlag
	.type	StartFlag,%object
	.section	.bss.StartFlag,"aw",%nobits
	.globl	StartFlag
StartFlag:
.LStartFlag$local:
	.byte	0                       @ 0x0
	.size	StartFlag, 1

	.hidden	StartCountFlag          @ @StartCountFlag
	.type	StartCountFlag,%object
	.section	.bss.StartCountFlag,"aw",%nobits
	.globl	StartCountFlag
StartCountFlag:
.LStartCountFlag$local:
	.byte	0                       @ 0x0
	.size	StartCountFlag, 1

	.hidden	SensorSoftVersion       @ @SensorSoftVersion
	.type	SensorSoftVersion,%object
	.section	.rodata.SensorSoftVersion,"a",%progbits
	.globl	SensorSoftVersion
SensorSoftVersion:
.LSensorSoftVersion$local:
	.asciz	"\007GD1.0.0\000"
	.size	SensorSoftVersion, 10

	.hidden	SendLen                 @ @SendLen
	.type	SendLen,%object
	.section	.bss.SendLen,"aw",%nobits
	.globl	SendLen
SendLen:
.LSendLen$local:
	.byte	0                       @ 0x0
	.size	SendLen, 1

	.hidden	SendBuf                 @ @SendBuf
	.type	SendBuf,%object
	.section	.bss.SendBuf,"aw",%nobits
	.globl	SendBuf
SendBuf:
.LSendBuf$local:
	.zero	100
	.size	SendBuf, 100

	.type	.L__const.MBASC_Fun41.buf,%object @ @__const.MBASC_Fun41.buf
	.section	.rodata..L__const.MBASC_Fun41.buf,"a",%progbits
.L__const.MBASC_Fun41.buf:
	.byte	255
	.size	.L__const.MBASC_Fun41.buf, 1

	.section	".note.GNU-stack","",%progbits
	.eabi_attribute	30, 6	@ Tag_ABI_optimization_goals
	.ARM_attribute	16, 1	@ Tag_AV_eba