	.text
	.syntax unified
	.eabi_attribute	67, "2.09"	@ Tag_conformance
	.cpu	cortex-m23
	.eabi_attribute	6, 16	@ Tag_CPU_arch
	.eabi_attribute	7, 77	@ Tag_CPU_arch_profile
	.eabi_attribute	8, 0	@ Tag_ARM_ISA_use
	.eabi_attribute	9, 3	@ Tag_THUMB_ISA_use
	.eabi_attribute	34, 0	@ Tag_CPU_unaligned_access
	.eabi_attribute	17, 1	@ Tag_ABI_PCS_GOT_use
	.eabi_attribute	20, 2	@ Tag_ABI_FP_denormal
	.eabi_attribute	21, 0	@ Tag_ABI_FP_exceptions
	.eabi_attribute	23, 1	@ Tag_ABI_FP_number_model
	.eabi_attribute	24, 1	@ Tag_ABI_align_needed
	.eabi_attribute	25, 1	@ Tag_ABI_align_preserved
	.eabi_attribute	38, 1	@ Tag_ABI_FP_16bit_format
	.eabi_attribute	18, 2	@ Tag_ABI_PCS_wchar_t
	.eabi_attribute	26, 1	@ Tag_ABI_enum_size
	.eabi_attribute	14, 0	@ Tag_ABI_PCS_R9_use
	.file	"para.c"
	.file	1 "D:\\Keil_v5\\ARM\\ARMCLANG\\Bin\\..\\include" "stdint.h"
	.file	2 "E:\\project\\product\\GD32\\GD32E230\\E230 - TH\\MDK-ARM" "../APP/Inc\\type.h"
	.file	3 "E:\\project\\product\\GD32\\GD32E230\\E230 - TH\\MDK-ARM" "../APP/Src/para.c"
	.section	.text.ReadPara,"ax",%progbits
	.hidden	ReadPara                @ -- Begin function ReadPara
	.globl	ReadPara
	.p2align	2
	.type	ReadPara,%function
	.code	16                      @ @ReadPara
	.thumb_func
ReadPara:
.Lfunc_begin0:
	.loc	3 27 0                  @ ../APP/Src/para.c:27:0
	.fnstart
	.cfi_sections .debug_frame
	.cfi_startproc
@ %bb.0:
	.save	{r4, lr}
	push	{r4, lr}
	.cfi_def_cfa_offset 8
	.cfi_offset lr, -4
	.cfi_offset r4, -8
	.pad	#16
	sub	sp, #16
	.cfi_def_cfa_offset 24
	movs	r0, #0
	add	r1, sp, #12
	movs	r2, #1
.Ltmp0:
	.loc	3 29 5 prologue_end     @ ../APP/Src/para.c:29:5
	str	r1, [sp, #8]            @ 4-byte Spill
	bl	flash_read_MultiBytes
.Ltmp1:
	.loc	3 30 7                  @ ../APP/Src/para.c:30:7
	ldr	r1, [sp, #8]            @ 4-byte Reload
	ldrb	r2, [r1]
	.loc	3 30 23 is_stmt 0       @ ../APP/Src/para.c:30:23
	ldr	r3, __arm_cp.0_0
	ldrb	r3, [r3]
.Ltmp2:
	.loc	3 30 7                  @ ../APP/Src/para.c:30:7
	cmp	r2, r3
	beq	.LBB0_2
	b	.LBB0_1
.LBB0_1:
.Ltmp3:
	.loc	3 32 9 is_stmt 1        @ ../APP/Src/para.c:32:9
	ldr	r1, __arm_cp.0_0
	movs	r0, #0
	movs	r2, #19
	bl	Flash_Write_MultiBytes
	.loc	3 33 5                  @ ../APP/Src/para.c:33:5
	b	.LBB0_2
.Ltmp4:
.LBB0_2:
	.loc	3 34 5                  @ ../APP/Src/para.c:34:5
	ldr	r0, __arm_cp.0_1
	movs	r1, #0
	movs	r2, #19
	str	r0, [sp, #4]            @ 4-byte Spill
	mov	r0, r1
	ldr	r1, [sp, #4]            @ 4-byte Reload
	bl	flash_read_MultiBytes
	.loc	3 35 31                 @ ../APP/Src/para.c:35:31
	ldr	r1, [sp, #4]            @ 4-byte Reload
	ldrb	r2, [r1, #1]
	.loc	3 35 29 is_stmt 0       @ ../APP/Src/para.c:35:29
	ldr	r3, __arm_cp.0_2
	strb	r2, [r3]
	.loc	3 36 31 is_stmt 1       @ ../APP/Src/para.c:36:31
	ldrb	r2, [r1, #2]
	.loc	3 36 29 is_stmt 0       @ ../APP/Src/para.c:36:29
	strb	r2, [r3, #1]
	.loc	3 37 28 is_stmt 1       @ ../APP/Src/para.c:37:28
	ldrb	r2, [r1, #3]
	.loc	3 37 26 is_stmt 0       @ ../APP/Src/para.c:37:26
	strb	r2, [r3, #2]
	.loc	3 42 27 is_stmt 1       @ ../APP/Src/para.c:42:27
	ldrb	r2, [r1, #5]
	.loc	3 42 50 is_stmt 0       @ ../APP/Src/para.c:42:50
	lsls	r2, r2, #8
	.loc	3 42 57                 @ ../APP/Src/para.c:42:57
	ldrb	r3, [r1, #4]
	.loc	3 42 56                 @ ../APP/Src/para.c:42:56
	adds	r2, r2, r3
	.loc	3 42 24                 @ ../APP/Src/para.c:42:24
	ldr	r3, __arm_cp.0_3
	strh	r2, [r3, #4]
	.loc	3 43 27 is_stmt 1       @ ../APP/Src/para.c:43:27
	ldrb	r2, [r1, #7]
	.loc	3 43 50 is_stmt 0       @ ../APP/Src/para.c:43:50
	lsls	r2, r2, #8
	.loc	3 43 57                 @ ../APP/Src/para.c:43:57
	ldrb	r4, [r1, #6]
	.loc	3 43 56                 @ ../APP/Src/para.c:43:56
	adds	r2, r2, r4
	.loc	3 43 24                 @ ../APP/Src/para.c:43:24
	strh	r2, [r3, #8]
	.loc	3 45 28 is_stmt 1       @ ../APP/Src/para.c:45:28
	ldrb	r2, [r1, #9]
	.loc	3 45 51 is_stmt 0       @ ../APP/Src/para.c:45:51
	lsls	r2, r2, #8
	.loc	3 45 58                 @ ../APP/Src/para.c:45:58
	ldrb	r4, [r1, #8]
	.loc	3 45 57                 @ ../APP/Src/para.c:45:57
	adds	r2, r2, r4
	.loc	3 45 25                 @ ../APP/Src/para.c:45:25
	strh	r2, [r3, #12]
	.loc	3 46 28 is_stmt 1       @ ../APP/Src/para.c:46:28
	ldrb	r2, [r1, #11]
	.loc	3 46 52 is_stmt 0       @ ../APP/Src/para.c:46:52
	lsls	r2, r2, #8
	.loc	3 46 59                 @ ../APP/Src/para.c:46:59
	ldrb	r4, [r1, #10]
	.loc	3 46 58                 @ ../APP/Src/para.c:46:58
	adds	r2, r2, r4
	.loc	3 46 25                 @ ../APP/Src/para.c:46:25
	strh	r2, [r3, #14]
	.loc	3 48 27 is_stmt 1       @ ../APP/Src/para.c:48:27
	ldrb	r2, [r1, #13]
	.loc	3 48 51 is_stmt 0       @ ../APP/Src/para.c:48:51
	lsls	r2, r2, #8
	.loc	3 48 58                 @ ../APP/Src/para.c:48:58
	ldrb	r4, [r1, #12]
	.loc	3 48 57                 @ ../APP/Src/para.c:48:57
	adds	r2, r2, r4
	.loc	3 48 24                 @ ../APP/Src/para.c:48:24
	strh	r2, [r3, #6]
	.loc	3 49 27 is_stmt 1       @ ../APP/Src/para.c:49:27
	ldrb	r2, [r1, #15]
	.loc	3 49 51 is_stmt 0       @ ../APP/Src/para.c:49:51
	lsls	r2, r2, #8
	.loc	3 49 58                 @ ../APP/Src/para.c:49:58
	ldrb	r4, [r1, #14]
	.loc	3 49 57                 @ ../APP/Src/para.c:49:57
	adds	r2, r2, r4
	.loc	3 49 24                 @ ../APP/Src/para.c:49:24
	strh	r2, [r3, #10]
	.loc	3 51 29 is_stmt 1       @ ../APP/Src/para.c:51:29
	ldrb	r2, [r1, #16]
	.loc	3 51 27 is_stmt 0       @ ../APP/Src/para.c:51:27
	strb	r2, [r3, #24]
	.loc	3 52 29 is_stmt 1       @ ../APP/Src/para.c:52:29
	ldrb	r2, [r1, #17]
	.loc	3 52 27 is_stmt 0       @ ../APP/Src/para.c:52:27
	strb	r2, [r3, #25]
	.loc	3 55 1 is_stmt 1        @ ../APP/Src/para.c:55:1
	add	sp, #16
	pop	{r4, pc}
.Ltmp5:
	.p2align	2
@ %bb.3:
	.loc	3 0 1 is_stmt 0         @ ../APP/Src/para.c:0:1
__arm_cp.0_0:
	.long	User_Default_Param
.Lcpi_end0:
	.size	__arm_cp.0_0, .Lcpi_end0-__arm_cp.0_0
__arm_cp.0_1:
	.long	Cur_Param
.Lcpi_end1:
	.size	__arm_cp.0_1, .Lcpi_end1-__arm_cp.0_1
__arm_cp.0_2:
	.long	UserPara
.Lcpi_end2:
	.size	__arm_cp.0_2, .Lcpi_end2-__arm_cp.0_2
__arm_cp.0_3:
	.long	T_H
.Lcpi_end3:
	.size	__arm_cp.0_3, .Lcpi_end3-__arm_cp.0_3
.Lfunc_end0:
	.size	ReadPara, .Lfunc_end0-ReadPara
	.cfi_endproc
	.cantunwind
	.fnend
                                        @ -- End function
	.type	User_Default_Param,%object @ @User_Default_Param
	.section	.data.User_Default_Param,"aw",%progbits
User_Default_Param:
	.asciz	"\002!&\003\277\017G\n\036\000\036\000 \003\310\000\000\000"
	.size	User_Default_Param, 19

	.hidden	Cur_Param               @ @Cur_Param
	.type	Cur_Param,%object
	.section	.bss.Cur_Param,"aw",%nobits
	.globl	Cur_Param
Cur_Param:
.LCur_Param$local:
	.zero	19
	.size	Cur_Param, 19

	.hidden	UserPara                @ @UserPara
	.type	UserPara,%object
	.section	.bss.UserPara,"aw",%nobits
	.globl	UserPara
	.p2align	2
UserPara:
.LUserPara$local:
	.zero	36
	.size	UserPara, 36

	.section	".note.GNU-stack","",%progbits
	.eabi_attribute	30, 6	@ Tag_ABI_optimization_goals
	.ARM_attribute	16, 1	@ Tag_AV_eba