	.text
	.syntax unified
	.eabi_attribute	67, "2.09"	@ Tag_conformance
	.cpu	cortex-m23
	.eabi_attribute	6, 16	@ Tag_CPU_arch
	.eabi_attribute	7, 77	@ Tag_CPU_arch_profile
	.eabi_attribute	8, 0	@ Tag_ARM_ISA_use
	.eabi_attribute	9, 3	@ Tag_THUMB_ISA_use
	.eabi_attribute	34, 0	@ Tag_CPU_unaligned_access
	.eabi_attribute	17, 1	@ Tag_ABI_PCS_GOT_use
	.eabi_attribute	20, 2	@ Tag_ABI_FP_denormal
	.eabi_attribute	21, 0	@ Tag_ABI_FP_exceptions
	.eabi_attribute	23, 1	@ Tag_ABI_FP_number_model
	.eabi_attribute	24, 1	@ Tag_ABI_align_needed
	.eabi_attribute	25, 1	@ Tag_ABI_align_preserved
	.eabi_attribute	38, 1	@ Tag_ABI_FP_16bit_format
	.eabi_attribute	18, 2	@ Tag_ABI_PCS_wchar_t
	.eabi_attribute	26, 1	@ Tag_ABI_enum_size
	.eabi_attribute	14, 0	@ Tag_ABI_PCS_R9_use
	.file	"timer.c"
	.file	1 "D:\\Keil_v5\\ARM\\ARMCLANG\\Bin\\..\\include" "stdint.h"
	.file	2 "E:\\project\\product\\GD32\\E230 - TH\\MDK-ARM" "../BSP/Src/timer.c"
	.file	3 "E:\\project\\product\\GD32\\E230 - TH\\MDK-ARM" "../APP/Inc/type.h"
	.file	4 "E:\\project\\product\\GD32\\E230 - TH\\MDK-ARM" "../GD32E230_Firmware_Library/GD32E230_standard_peripheral/Include\\gd32e230_rcu.h"
	.file	5 "E:\\project\\product\\GD32\\E230 - TH\\MDK-ARM" "../GD32E230_Firmware_Library/CMSIS/GD/GD32E230/Include\\gd32e230.h"
	.section	.text.timer_config,"ax",%progbits
	.hidden	timer_config            @ -- Begin function timer_config
	.globl	timer_config
	.p2align	2
	.type	timer_config,%function
	.code	16                      @ @timer_config
	.thumb_func
timer_config:
.Lfunc_begin0:
	.loc	2 13 0                  @ ../BSP/Src/timer.c:13:0
	.fnstart
	.cfi_sections .debug_frame
	.cfi_startproc
@ %bb.0:
	.save	{r7, lr}
	push	{r7, lr}
	.cfi_def_cfa_offset 8
	.cfi_offset lr, -4
	.cfi_offset r7, -8
	.pad	#64
	sub	sp, #64
	.cfi_def_cfa_offset 72
	ldr	r0, __arm_cp.0_0
.Ltmp0:
	.loc	2 18 5 prologue_end     @ ../BSP/Src/timer.c:18:5
	bl	rcu_periph_clock_enable
	ldr	r0, __arm_cp.0_1
	.loc	2 19 2                  @ ../BSP/Src/timer.c:19:2
	bl	rcu_periph_clock_enable
	ldr	r0, __arm_cp.0_2
	.loc	2 26 2                  @ ../BSP/Src/timer.c:26:2
	str	r0, [sp, #24]           @ 4-byte Spill
	bl	timer_deinit
	add	r0, sp, #36
	movs	r1, #71
	.loc	2 29 38                 @ ../BSP/Src/timer.c:29:38
	strh	r1, [r0]
	movs	r1, #0
	.loc	2 30 38                 @ ../BSP/Src/timer.c:30:38
	strh	r1, [r0, #2]
	.loc	2 31 38                 @ ../BSP/Src/timer.c:31:38
	strh	r1, [r0, #4]
	ldr	r2, __arm_cp.0_3
	.loc	2 32 38                 @ ../BSP/Src/timer.c:32:38
	str	r2, [sp, #44]
	.loc	2 33 38                 @ ../BSP/Src/timer.c:33:38
	strh	r1, [r0, #6]
	.loc	2 34 38                 @ ../BSP/Src/timer.c:34:38
	strb	r1, [r0, #12]
	.loc	2 35 5                  @ ../BSP/Src/timer.c:35:5
	ldr	r2, [sp, #24]           @ 4-byte Reload
	str	r0, [sp, #20]           @ 4-byte Spill
	mov	r0, r2
	ldr	r3, [sp, #20]           @ 4-byte Reload
	str	r1, [sp, #16]           @ 4-byte Spill
	mov	r1, r3
	bl	timer_init
	add	r0, sp, #28
	.loc	2 50 2                  @ ../BSP/Src/timer.c:50:2
	str	r0, [sp, #12]           @ 4-byte Spill
	bl	timer_channel_input_struct_para_init
	.loc	2 51 31                 @ ../BSP/Src/timer.c:51:31
	ldr	r0, [sp, #16]           @ 4-byte Reload
	ldr	r1, [sp, #12]           @ 4-byte Reload
	strh	r0, [r1]
	movs	r2, #1
	.loc	2 52 31                 @ ../BSP/Src/timer.c:52:31
	strh	r2, [r1, #2]
	.loc	2 53 31                 @ ../BSP/Src/timer.c:53:31
	strh	r0, [r1, #4]
	.loc	2 54 31                 @ ../BSP/Src/timer.c:54:31
	strh	r0, [r1, #6]
	.loc	2 55 2                  @ ../BSP/Src/timer.c:55:2
	ldr	r0, [sp, #24]           @ 4-byte Reload
	ldr	r1, [sp, #16]           @ 4-byte Reload
	ldr	r3, [sp, #12]           @ 4-byte Reload
	str	r2, [sp, #8]            @ 4-byte Spill
	mov	r2, r3
	bl	timer_input_capture_config
	.loc	2 58 2                  @ ../BSP/Src/timer.c:58:2
	ldr	r0, [sp, #12]           @ 4-byte Reload
	bl	timer_channel_input_struct_para_init
	.loc	2 59 31                 @ ../BSP/Src/timer.c:59:31
	ldr	r0, [sp, #16]           @ 4-byte Reload
	ldr	r1, [sp, #12]           @ 4-byte Reload
	strh	r0, [r1]
	.loc	2 60 31                 @ ../BSP/Src/timer.c:60:31
	ldr	r2, [sp, #8]            @ 4-byte Reload
	strh	r2, [r1, #2]
	.loc	2 61 31                 @ ../BSP/Src/timer.c:61:31
	strh	r0, [r1, #4]
	.loc	2 62 31                 @ ../BSP/Src/timer.c:62:31
	strh	r0, [r1, #6]
	.loc	2 63 2                  @ ../BSP/Src/timer.c:63:2
	ldr	r0, [sp, #24]           @ 4-byte Reload
	mov	r1, r2
	ldr	r2, [sp, #12]           @ 4-byte Reload
	bl	timer_input_capture_config
	.loc	2 67 5                  @ ../BSP/Src/timer.c:67:5
	ldr	r0, [sp, #24]           @ 4-byte Reload
	bl	timer_auto_reload_shadow_enable
	movs	r0, #2
	.loc	2 69 2                  @ ../BSP/Src/timer.c:69:2
	ldr	r1, [sp, #24]           @ 4-byte Reload
	str	r0, [sp, #4]            @ 4-byte Spill
	mov	r0, r1
	ldr	r1, [sp, #4]            @ 4-byte Reload
	bl	timer_interrupt_flag_clear
	movs	r0, #4
	.loc	2 70 2                  @ ../BSP/Src/timer.c:70:2
	ldr	r1, [sp, #24]           @ 4-byte Reload
	str	r0, [sp]                @ 4-byte Spill
	mov	r0, r1
	ldr	r1, [sp]                @ 4-byte Reload
	bl	timer_interrupt_flag_clear
	.loc	2 72 2                  @ ../BSP/Src/timer.c:72:2
	ldr	r0, [sp, #24]           @ 4-byte Reload
	ldr	r1, [sp, #4]            @ 4-byte Reload
	bl	timer_interrupt_enable
	.loc	2 73 2                  @ ../BSP/Src/timer.c:73:2
	ldr	r0, [sp, #24]           @ 4-byte Reload
	ldr	r1, [sp]                @ 4-byte Reload
	bl	timer_interrupt_enable
	movs	r0, #14
	.loc	2 75 2                  @ ../BSP/Src/timer.c:75:2
	ldr	r1, [sp, #4]            @ 4-byte Reload
	bl	nvic_irq_enable
	.loc	2 78 2                  @ ../BSP/Src/timer.c:78:2
	ldr	r0, [sp, #24]           @ 4-byte Reload
	bl	timer_enable
	.loc	2 80 1                  @ ../BSP/Src/timer.c:80:1
	add	sp, #64
	pop	{r7, pc}
.Ltmp1:
	.p2align	2
@ %bb.1:
	.loc	2 0 1 is_stmt 0         @ ../BSP/Src/timer.c:0:1
__arm_cp.0_0:
	.long	1547                    @ 0x60b
.Lcpi_end0:
	.size	__arm_cp.0_0, .Lcpi_end0-__arm_cp.0_0
__arm_cp.0_1:
	.long	1297                    @ 0x511
.Lcpi_end1:
	.size	__arm_cp.0_1, .Lcpi_end1-__arm_cp.0_1
__arm_cp.0_2:
	.long	1073818624              @ 0x40012c00
.Lcpi_end2:
	.size	__arm_cp.0_2, .Lcpi_end2-__arm_cp.0_2
__arm_cp.0_3:
	.long	65535                   @ 0xffff
.Lcpi_end3:
	.size	__arm_cp.0_3, .Lcpi_end3-__arm_cp.0_3
.Lfunc_end0:
	.size	timer_config, .Lfunc_end0-timer_config
	.cfi_endproc
	.cantunwind
	.fnend
                                        @ -- End function
	.section	.text.TIMER2_Init,"ax",%progbits
	.hidden	TIMER2_Init             @ -- Begin function TIMER2_Init
	.globl	TIMER2_Init
	.p2align	2
	.type	TIMER2_Init,%function
	.code	16                      @ @TIMER2_Init
	.thumb_func
TIMER2_Init:
.Lfunc_begin1:
	.loc	2 84 0 is_stmt 1        @ ../BSP/Src/timer.c:84:0
	.fnstart
	.cfi_startproc
@ %bb.0:
	.save	{r7, lr}
	push	{r7, lr}
	.cfi_def_cfa_offset 8
	.cfi_offset lr, -4
	.cfi_offset r7, -8
	.pad	#40
	sub	sp, #40
	.cfi_def_cfa_offset 48
	movw	r0, #1552
.Ltmp2:
	.loc	2 88 5 prologue_end     @ ../BSP/Src/timer.c:88:5
	bl	rcu_periph_clock_enable
	ldr	r0, __arm_cp.1_0
	.loc	2 90 5                  @ ../BSP/Src/timer.c:90:5
	str	r0, [sp, #8]            @ 4-byte Spill
	bl	timer_deinit
	add	r0, sp, #12
	ldr	r1, __arm_cp.1_1
	.loc	2 93 38                 @ ../BSP/Src/timer.c:93:38
	strh	r1, [r0]
	movs	r1, #0
	.loc	2 94 38                 @ ../BSP/Src/timer.c:94:38
	strh	r1, [r0, #2]
	.loc	2 95 38                 @ ../BSP/Src/timer.c:95:38
	strh	r1, [r0, #4]
	ldr	r2, __arm_cp.1_2
	.loc	2 96 38                 @ ../BSP/Src/timer.c:96:38
	str	r2, [sp, #20]
	.loc	2 97 38                 @ ../BSP/Src/timer.c:97:38
	strh	r1, [r0, #6]
	.loc	2 98 38                 @ ../BSP/Src/timer.c:98:38
	strb	r1, [r0, #12]
	.loc	2 99 5                  @ ../BSP/Src/timer.c:99:5
	ldr	r1, [sp, #8]            @ 4-byte Reload
	str	r0, [sp, #4]            @ 4-byte Spill
	mov	r0, r1
	ldr	r1, [sp, #4]            @ 4-byte Reload
	bl	timer_init
	movs	r0, #20
	movs	r1, #2
	.loc	2 110 2                 @ ../BSP/Src/timer.c:110:2
	bl	nvic_irq_enable
	.loc	2 112 5                 @ ../BSP/Src/timer.c:112:5
	ldr	r0, [sp, #8]            @ 4-byte Reload
	bl	timer_auto_reload_shadow_enable
	movs	r1, #1
	.loc	2 115 2                 @ ../BSP/Src/timer.c:115:2
	ldr	r0, [sp, #8]            @ 4-byte Reload
	bl	timer_interrupt_enable
	.loc	2 116 2                 @ ../BSP/Src/timer.c:116:2
	ldr	r0, [sp, #8]            @ 4-byte Reload
	bl	timer_enable
	.loc	2 119 1                 @ ../BSP/Src/timer.c:119:1
	add	sp, #40
	pop	{r7, pc}
.Ltmp3:
	.p2align	2
@ %bb.1:
	.loc	2 0 1 is_stmt 0         @ ../BSP/Src/timer.c:0:1
__arm_cp.1_0:
	.long	1073823744              @ 0x40014000
.Lcpi_end4:
	.size	__arm_cp.1_0, .Lcpi_end4-__arm_cp.1_0
__arm_cp.1_1:
	.long	7199                    @ 0x1c1f
.Lcpi_end5:
	.size	__arm_cp.1_1, .Lcpi_end5-__arm_cp.1_1
__arm_cp.1_2:
	.long	9999                    @ 0x270f
.Lcpi_end6:
	.size	__arm_cp.1_2, .Lcpi_end6-__arm_cp.1_2
.Lfunc_end1:
	.size	TIMER2_Init, .Lfunc_end1-TIMER2_Init
	.cfi_endproc
	.cantunwind
	.fnend
                                        @ -- End function
	.section	.text.TIMER15_Init,"ax",%progbits
	.hidden	TIMER15_Init            @ -- Begin function TIMER15_Init
	.globl	TIMER15_Init
	.p2align	2
	.type	TIMER15_Init,%function
	.code	16                      @ @TIMER15_Init
	.thumb_func
TIMER15_Init:
.Lfunc_begin2:
	.loc	2 124 0 is_stmt 1       @ ../BSP/Src/timer.c:124:0
	.fnstart
	.cfi_startproc
@ %bb.0:
	.save	{r7, lr}
	push	{r7, lr}
	.cfi_def_cfa_offset 8
	.cfi_offset lr, -4
	.cfi_offset r7, -8
	.pad	#40
	sub	sp, #40
	.cfi_def_cfa_offset 48
	ldr	r0, __arm_cp.2_0
.Ltmp4:
	.loc	2 128 5 prologue_end    @ ../BSP/Src/timer.c:128:5
	bl	rcu_periph_clock_enable
	ldr	r0, __arm_cp.2_1
	.loc	2 130 5                 @ ../BSP/Src/timer.c:130:5
	str	r0, [sp, #8]            @ 4-byte Spill
	bl	timer_deinit
	add	r0, sp, #12
	ldr	r1, __arm_cp.2_2
	.loc	2 133 38                @ ../BSP/Src/timer.c:133:38
	strh	r1, [r0]
	movs	r1, #0
	.loc	2 134 38                @ ../BSP/Src/timer.c:134:38
	strh	r1, [r0, #2]
	.loc	2 135 38                @ ../BSP/Src/timer.c:135:38
	strh	r1, [r0, #4]
	ldr	r2, __arm_cp.2_3
	.loc	2 136 38                @ ../BSP/Src/timer.c:136:38
	str	r2, [sp, #20]
	.loc	2 137 38                @ ../BSP/Src/timer.c:137:38
	strh	r1, [r0, #6]
	.loc	2 138 38                @ ../BSP/Src/timer.c:138:38
	strb	r1, [r0, #12]
	.loc	2 139 5                 @ ../BSP/Src/timer.c:139:5
	ldr	r1, [sp, #8]            @ 4-byte Reload
	str	r0, [sp, #4]            @ 4-byte Spill
	mov	r0, r1
	ldr	r1, [sp, #4]            @ 4-byte Reload
	bl	timer_init
	movs	r0, #21
	movs	r1, #3
	.loc	2 150 2                 @ ../BSP/Src/timer.c:150:2
	bl	nvic_irq_enable
	.loc	2 152 5                 @ ../BSP/Src/timer.c:152:5
	ldr	r0, [sp, #8]            @ 4-byte Reload
	bl	timer_auto_reload_shadow_enable
	movs	r1, #1
	.loc	2 155 2                 @ ../BSP/Src/timer.c:155:2
	ldr	r0, [sp, #8]            @ 4-byte Reload
	bl	timer_interrupt_disable
	.loc	2 156 2                 @ ../BSP/Src/timer.c:156:2
	ldr	r0, [sp, #8]            @ 4-byte Reload
	bl	timer_disable
	.loc	2 159 1                 @ ../BSP/Src/timer.c:159:1
	add	sp, #40
	pop	{r7, pc}
.Ltmp5:
	.p2align	2
@ %bb.1:
	.loc	2 0 1 is_stmt 0         @ ../BSP/Src/timer.c:0:1
__arm_cp.2_0:
	.long	1553                    @ 0x611
.Lcpi_end7:
	.size	__arm_cp.2_0, .Lcpi_end7-__arm_cp.2_0
__arm_cp.2_1:
	.long	1073824768              @ 0x40014400
.Lcpi_end8:
	.size	__arm_cp.2_1, .Lcpi_end8-__arm_cp.2_1
__arm_cp.2_2:
	.long	7199                    @ 0x1c1f
.Lcpi_end9:
	.size	__arm_cp.2_2, .Lcpi_end9-__arm_cp.2_2
__arm_cp.2_3:
	.long	9999                    @ 0x270f
.Lcpi_end10:
	.size	__arm_cp.2_3, .Lcpi_end10-__arm_cp.2_3
.Lfunc_end2:
	.size	TIMER15_Init, .Lfunc_end2-TIMER15_Init
	.cfi_endproc
	.cantunwind
	.fnend
                                        @ -- End function
	.section	.text.TIMER0_Channel_IRQHandler,"ax",%progbits
	.hidden	TIMER0_Channel_IRQHandler @ -- Begin function TIMER0_Channel_IRQHandler
	.globl	TIMER0_Channel_IRQHandler
	.p2align	2
	.type	TIMER0_Channel_IRQHandler,%function
	.code	16                      @ @TIMER0_Channel_IRQHandler
	.thumb_func
TIMER0_Channel_IRQHandler:
.Lfunc_begin3:
	.loc	2 192 0 is_stmt 1       @ ../BSP/Src/timer.c:192:0
	.fnstart
	.cfi_startproc
@ %bb.0:
	.save	{r7, lr}
	push	{r7, lr}
	.cfi_def_cfa_offset 8
	.cfi_offset lr, -4
	.cfi_offset r7, -8
	.pad	#8
	sub	sp, #8
	.cfi_def_cfa_offset 16
	ldr	r0, __arm_cp.3_0
	movs	r1, #2
.Ltmp6:
	.loc	2 194 5 prologue_end    @ ../BSP/Src/timer.c:194:5
	bl	timer_interrupt_flag_get
.Ltmp7:
	.loc	2 194 5 is_stmt 0       @ ../BSP/Src/timer.c:194:5
	cmp	r0, #0
	beq	.LBB3_5
	b	.LBB3_1
.LBB3_1:
	.loc	2 0 5                   @ ../BSP/Src/timer.c:0:5
	ldr	r0, __arm_cp.3_0
	movs	r1, #2
.Ltmp8:
	.loc	2 197 3 is_stmt 1       @ ../BSP/Src/timer.c:197:3
	bl	timer_interrupt_flag_clear
.Ltmp9:
	.loc	2 199 6                 @ ../BSP/Src/timer.c:199:6
	ldr	r0, __arm_cp.3_1
	ldrh	r0, [r0]
	.loc	2 199 21 is_stmt 0      @ ../BSP/Src/timer.c:199:21
	ldr	r1, __arm_cp.3_2
	ldrh	r1, [r1]
.Ltmp10:
	.loc	2 199 6                 @ ../BSP/Src/timer.c:199:6
	cmp	r0, r1
	blt	.LBB3_3
	b	.LBB3_2
.LBB3_2:
.Ltmp11:
	.loc	2 201 15 is_stmt 1      @ ../BSP/Src/timer.c:201:15
	ldr	r0, __arm_cp.3_1
	ldrh	r1, [r0]
	adds	r1, r1, #1
	strh	r1, [r0]
	.loc	2 202 11                @ ../BSP/Src/timer.c:202:11
	ldr	r0, __arm_cp.3_3
	ldrh	r1, [r0]
	adds	r1, r1, #1
	strh	r1, [r0]
	.loc	2 204 3                 @ ../BSP/Src/timer.c:204:3
	b	.LBB3_4
.Ltmp12:
.LBB3_3:
	.loc	2 208 16                @ ../BSP/Src/timer.c:208:16
	ldr	r0, __arm_cp.3_2
	movs	r1, #0
	strh	r1, [r0]
	b	.LBB3_4
.Ltmp13:
.LBB3_4:
	.loc	2 0 16 is_stmt 0        @ ../BSP/Src/timer.c:0:16
	ldr	r0, __arm_cp.3_0
	movs	r1, #4
	.loc	2 211 3 is_stmt 1       @ ../BSP/Src/timer.c:211:3
	bl	timer_interrupt_enable
	.loc	2 213 2                 @ ../BSP/Src/timer.c:213:2
	b	.LBB3_5
.Ltmp14:
.LBB3_5:
	.loc	2 0 2 is_stmt 0         @ ../BSP/Src/timer.c:0:2
	ldr	r0, __arm_cp.3_0
	movs	r1, #4
.Ltmp15:
	.loc	2 215 5 is_stmt 1       @ ../BSP/Src/timer.c:215:5
	bl	timer_interrupt_flag_get
.Ltmp16:
	.loc	2 215 5 is_stmt 0       @ ../BSP/Src/timer.c:215:5
	cmp	r0, #0
	beq	.LBB3_10
	b	.LBB3_6
.LBB3_6:
	.loc	2 0 5                   @ ../BSP/Src/timer.c:0:5
	ldr	r0, __arm_cp.3_0
	movs	r1, #2
.Ltmp17:
	.loc	2 218 3 is_stmt 1       @ ../BSP/Src/timer.c:218:3
	str	r0, [sp, #4]            @ 4-byte Spill
	bl	timer_interrupt_disable
	movs	r1, #4
	.loc	2 220 3                 @ ../BSP/Src/timer.c:220:3
	ldr	r0, [sp, #4]            @ 4-byte Reload
	bl	timer_interrupt_flag_clear
.Ltmp18:
	.loc	2 222 6                 @ ../BSP/Src/timer.c:222:6
	ldr	r0, __arm_cp.3_2
	ldrh	r0, [r0]
	.loc	2 222 21 is_stmt 0      @ ../BSP/Src/timer.c:222:21
	ldr	r1, __arm_cp.3_1
	ldrh	r1, [r1]
.Ltmp19:
	.loc	2 222 6                 @ ../BSP/Src/timer.c:222:6
	cmp	r0, r1
	blt	.LBB3_8
	b	.LBB3_7
.LBB3_7:
.Ltmp20:
	.loc	2 225 15 is_stmt 1      @ ../BSP/Src/timer.c:225:15
	ldr	r0, __arm_cp.3_2
	ldrh	r1, [r0]
	adds	r1, r1, #1
	strh	r1, [r0]
	.loc	2 227 11                @ ../BSP/Src/timer.c:227:11
	ldr	r0, __arm_cp.3_4
	ldrh	r1, [r0]
	adds	r1, r1, #1
	strh	r1, [r0]
	.loc	2 229 3                 @ ../BSP/Src/timer.c:229:3
	b	.LBB3_9
.Ltmp21:
.LBB3_8:
	.loc	2 233 16                @ ../BSP/Src/timer.c:233:16
	ldr	r0, __arm_cp.3_1
	movs	r1, #0
	strh	r1, [r0]
	b	.LBB3_9
.Ltmp22:
.LBB3_9:
	.loc	2 0 16 is_stmt 0        @ ../BSP/Src/timer.c:0:16
	ldr	r0, __arm_cp.3_0
	movs	r1, #2
	.loc	2 236 3 is_stmt 1       @ ../BSP/Src/timer.c:236:3
	bl	timer_interrupt_enable
	.loc	2 237 2                 @ ../BSP/Src/timer.c:237:2
	b	.LBB3_10
.Ltmp23:
.LBB3_10:
	.loc	2 240 1                 @ ../BSP/Src/timer.c:240:1
	add	sp, #8
	pop	{r7, pc}
.Ltmp24:
	.p2align	2
@ %bb.11:
	.loc	2 0 1 is_stmt 0         @ ../BSP/Src/timer.c:0:1
__arm_cp.3_0:
	.long	1073818624              @ 0x40012c00
.Lcpi_end11:
	.size	__arm_cp.3_0, .Lcpi_end11-__arm_cp.3_0
__arm_cp.3_1:
	.long	pulse_flag0
.Lcpi_end12:
	.size	__arm_cp.3_1, .Lcpi_end12-__arm_cp.3_1
__arm_cp.3_2:
	.long	pulse_flag1
.Lcpi_end13:
	.size	__arm_cp.3_2, .Lcpi_end13-__arm_cp.3_2
__arm_cp.3_3:
	.long	CH0_cnt
.Lcpi_end14:
	.size	__arm_cp.3_3, .Lcpi_end14-__arm_cp.3_3
__arm_cp.3_4:
	.long	CH1_cnt
.Lcpi_end15:
	.size	__arm_cp.3_4, .Lcpi_end15-__arm_cp.3_4
.Lfunc_end3:
	.size	TIMER0_Channel_IRQHandler, .Lfunc_end3-TIMER0_Channel_IRQHandler
	.cfi_endproc
	.cantunwind
	.fnend
                                        @ -- End function
	.section	.text.TIMER14_IRQHandler,"ax",%progbits
	.hidden	TIMER14_IRQHandler      @ -- Begin function TIMER14_IRQHandler
	.globl	TIMER14_IRQHandler
	.p2align	2
	.type	TIMER14_IRQHandler,%function
	.code	16                      @ @TIMER14_IRQHandler
	.thumb_func
TIMER14_IRQHandler:
.Lfunc_begin4:
	.loc	2 245 0 is_stmt 1       @ ../BSP/Src/timer.c:245:0
	.fnstart
	.cfi_startproc
@ %bb.0:
	.save	{r7, lr}
	push	{r7, lr}
	.cfi_def_cfa_offset 8
	.cfi_offset lr, -4
	.cfi_offset r7, -8
	.pad	#16
	sub	sp, #16
	.cfi_def_cfa_offset 24
	add	r0, sp, #12
	movs	r1, #0
.Ltmp25:
	.loc	2 246 11 prologue_end   @ ../BSP/Src/timer.c:246:11
	strh	r1, [r0]
	ldr	r0, __arm_cp.4_0
	movs	r1, #1
.Ltmp26:
	.loc	2 250 5                 @ ../BSP/Src/timer.c:250:5
	bl	timer_interrupt_flag_get
.Ltmp27:
	.loc	2 250 5 is_stmt 0       @ ../BSP/Src/timer.c:250:5
	cmp	r0, #0
	beq	.LBB4_2
	b	.LBB4_1
.LBB4_1:
	.loc	2 0 5                   @ ../BSP/Src/timer.c:0:5
	ldr	r0, __arm_cp.4_0
	movs	r1, #1
.Ltmp28:
	.loc	2 252 3 is_stmt 1       @ ../BSP/Src/timer.c:252:3
	str	r1, [sp, #4]            @ 4-byte Spill
	bl	timer_interrupt_flag_clear
	.loc	2 253 16                @ ../BSP/Src/timer.c:253:16
	ldr	r0, __arm_cp.4_1
	ldr	r1, [sp, #4]            @ 4-byte Reload
	strb	r1, [r0]
	.loc	2 256 2                 @ ../BSP/Src/timer.c:256:2
	b	.LBB4_2
.Ltmp29:
.LBB4_2:
	.loc	2 259 1                 @ ../BSP/Src/timer.c:259:1
	add	sp, #16
	pop	{r7, pc}
.Ltmp30:
	.p2align	2
@ %bb.3:
	.loc	2 0 1 is_stmt 0         @ ../BSP/Src/timer.c:0:1
__arm_cp.4_0:
	.long	1073823744              @ 0x40014000
.Lcpi_end16:
	.size	__arm_cp.4_0, .Lcpi_end16-__arm_cp.4_0
__arm_cp.4_1:
	.long	Time_1s_flag
.Lcpi_end17:
	.size	__arm_cp.4_1, .Lcpi_end17-__arm_cp.4_1
.Lfunc_end4:
	.size	TIMER14_IRQHandler, .Lfunc_end4-TIMER14_IRQHandler
	.cfi_endproc
	.cantunwind
	.fnend
                                        @ -- End function
	.section	.text.TIMER15_IRQHandler,"ax",%progbits
	.hidden	TIMER15_IRQHandler      @ -- Begin function TIMER15_IRQHandler
	.globl	TIMER15_IRQHandler
	.p2align	2
	.type	TIMER15_IRQHandler,%function
	.code	16                      @ @TIMER15_IRQHandler
	.thumb_func
TIMER15_IRQHandler:
.Lfunc_begin5:
	.loc	2 263 0 is_stmt 1       @ ../BSP/Src/timer.c:263:0
	.fnstart
	.cfi_startproc
@ %bb.0:
	.save	{r7, lr}
	push	{r7, lr}
	.cfi_def_cfa_offset 8
	.cfi_offset lr, -4
	.cfi_offset r7, -8
	.pad	#8
	sub	sp, #8
	.cfi_def_cfa_offset 16
	add	r0, sp, #4
	movs	r1, #0
.Ltmp31:
	.loc	2 264 11 prologue_end   @ ../BSP/Src/timer.c:264:11
	strh	r1, [r0]
	ldr	r0, __arm_cp.5_0
	movs	r1, #1
.Ltmp32:
	.loc	2 268 5                 @ ../BSP/Src/timer.c:268:5
	bl	timer_interrupt_flag_get
.Ltmp33:
	.loc	2 268 5 is_stmt 0       @ ../BSP/Src/timer.c:268:5
	cmp	r0, #0
	beq	.LBB5_2
	b	.LBB5_1
.LBB5_1:
	.loc	2 0 5                   @ ../BSP/Src/timer.c:0:5
	ldr	r0, __arm_cp.5_0
	movs	r1, #1
.Ltmp34:
	.loc	2 270 3 is_stmt 1       @ ../BSP/Src/timer.c:270:3
	bl	timer_interrupt_flag_clear
	.loc	2 271 21                @ ../BSP/Src/timer.c:271:21
	ldr	r0, __arm_cp.5_1
	ldrh	r1, [r0]
	adds	r1, r1, #1
	strh	r1, [r0]
	.loc	2 275 2                 @ ../BSP/Src/timer.c:275:2
	b	.LBB5_2
.Ltmp35:
.LBB5_2:
	.loc	2 278 1                 @ ../BSP/Src/timer.c:278:1
	add	sp, #8
	pop	{r7, pc}
.Ltmp36:
	.p2align	2
@ %bb.3:
	.loc	2 0 1 is_stmt 0         @ ../BSP/Src/timer.c:0:1
__arm_cp.5_0:
	.long	1073824768              @ 0x40014400
.Lcpi_end18:
	.size	__arm_cp.5_0, .Lcpi_end18-__arm_cp.5_0
__arm_cp.5_1:
	.long	AutoUpLoad_counter
.Lcpi_end19:
	.size	__arm_cp.5_1, .Lcpi_end19-__arm_cp.5_1
.Lfunc_end5:
	.size	TIMER15_IRQHandler, .Lfunc_end5-TIMER15_IRQHandler
	.cfi_endproc
	.cantunwind
	.fnend
                                        @ -- End function
	.hidden	tim_cnt                 @ @tim_cnt
	.type	tim_cnt,%object
	.section	.bss.tim_cnt,"aw",%nobits
	.globl	tim_cnt
	.p2align	1
tim_cnt:
.Ltim_cnt$local:
	.short	0                       @ 0x0
	.size	tim_cnt, 2

	.hidden	tim_1min_cnt            @ @tim_1min_cnt
	.type	tim_1min_cnt,%object
	.section	.bss.tim_1min_cnt,"aw",%nobits
	.globl	tim_1min_cnt
	.p2align	1
tim_1min_cnt:
.Ltim_1min_cnt$local:
	.short	0                       @ 0x0
	.size	tim_1min_cnt, 2

	.hidden	Time_5s_flag            @ @Time_5s_flag
	.type	Time_5s_flag,%object
	.section	.bss.Time_5s_flag,"aw",%nobits
	.globl	Time_5s_flag
Time_5s_flag:
.LTime_5s_flag$local:
	.byte	0                       @ 0x0
	.size	Time_5s_flag, 1

	.hidden	Time_1s_flag            @ @Time_1s_flag
	.type	Time_1s_flag,%object
	.section	.bss.Time_1s_flag,"aw",%nobits
	.globl	Time_1s_flag
Time_1s_flag:
.LTime_1s_flag$local:
	.byte	0                       @ 0x0
	.size	Time_1s_flag, 1

	.hidden	CH0_cnt                 @ @CH0_cnt
	.type	CH0_cnt,%object
	.section	.bss.CH0_cnt,"aw",%nobits
	.globl	CH0_cnt
	.p2align	1
CH0_cnt:
.LCH0_cnt$local:
	.short	0                       @ 0x0
	.size	CH0_cnt, 2

	.hidden	CH1_cnt                 @ @CH1_cnt
	.type	CH1_cnt,%object
	.section	.bss.CH1_cnt,"aw",%nobits
	.globl	CH1_cnt
	.p2align	1
CH1_cnt:
.LCH1_cnt$local:
	.short	0                       @ 0x0
	.size	CH1_cnt, 2

	.hidden	CH_cnt                  @ @CH_cnt
	.type	CH_cnt,%object
	.section	.bss.CH_cnt,"aw",%nobits
	.globl	CH_cnt
	.p2align	1
CH_cnt:
.LCH_cnt$local:
	.short	0                       @ 0x0
	.size	CH_cnt, 2

	.hidden	PulseFlag               @ @PulseFlag
	.type	PulseFlag,%object
	.section	.bss.PulseFlag,"aw",%nobits
	.globl	PulseFlag
PulseFlag:
.LPulseFlag$local:
	.byte	0                       @ 0x0
	.size	PulseFlag, 1

	.hidden	Time_1min_flag          @ @Time_1min_flag
	.type	Time_1min_flag,%object
	.section	.bss.Time_1min_flag,"aw",%nobits
	.globl	Time_1min_flag
Time_1min_flag:
.LTime_1min_flag$local:
	.byte	0                       @ 0x0
	.size	Time_1min_flag, 1

	.hidden	first_20s               @ @first_20s
	.type	first_20s,%object
	.section	.bss.first_20s,"aw",%nobits
	.globl	first_20s
first_20s:
.Lfirst_20s$local:
	.byte	0                       @ 0x0
	.size	first_20s, 1

	.hidden	pulse_flag0             @ @pulse_flag0
	.type	pulse_flag0,%object
	.section	.bss.pulse_flag0,"aw",%nobits
	.globl	pulse_flag0
	.p2align	1
pulse_flag0:
.Lpulse_flag0$local:
	.short	0                       @ 0x0
	.size	pulse_flag0, 2

	.hidden	pulse_flag1             @ @pulse_flag1
	.type	pulse_flag1,%object
	.section	.bss.pulse_flag1,"aw",%nobits
	.globl	pulse_flag1
	.p2align	1
pulse_flag1:
.Lpulse_flag1$local:
	.short	0                       @ 0x0
	.size	pulse_flag1, 2

	.hidden	status_flag             @ @status_flag
	.type	status_flag,%object
	.section	.bss.status_flag,"aw",%nobits
	.globl	status_flag
	.p2align	1
status_flag:
.Lstatus_flag$local:
	.short	0                       @ 0x0
	.size	status_flag, 2

	.hidden	timeD_flag              @ @timeD_flag
	.type	timeD_flag,%object
	.section	.bss.timeD_flag,"aw",%nobits
	.globl	timeD_flag
	.p2align	1
timeD_flag:
.LtimeD_flag$local:
	.short	0                       @ 0x0
	.size	timeD_flag, 2

	.hidden	AutoUpLoad_counter      @ @AutoUpLoad_counter
	.type	AutoUpLoad_counter,%object
	.section	.bss.AutoUpLoad_counter,"aw",%nobits
	.globl	AutoUpLoad_counter
	.p2align	1
AutoUpLoad_counter:
.LAutoUpLoad_counter$local:
	.short	0                       @ 0x0
	.size	AutoUpLoad_counter, 2

	.hidden	status                  @ @status
	.type	status,%object
	.section	.bss.status,"aw",%nobits
	.globl	status
	.p2align	2
status:
.Lstatus$local:
	.zero	36
	.size	status, 36

	.file	6 "E:\\project\\product\\GD32\\E230 - TH\\MDK-ARM" "../GD32E230_Firmware_Library/GD32E230_standard_peripheral/Include\\gd32e230_timer.h"
	.section	".note.GNU-stack","",%progbits
	.eabi_attribute	30, 6	@ Tag_ABI_optimization_goals
	.ARM_attribute	16, 1	@ Tag_AV_eba